   1              		.syntax unified
   2              		.cpu cortex-m4
   3              		.eabi_attribute 27, 3
   4              		.fpu fpv4-sp-d16
   5              		.eabi_attribute 20, 1
   6              		.eabi_attribute 21, 1
   7              		.eabi_attribute 23, 3
   8              		.eabi_attribute 24, 1
   9              		.eabi_attribute 25, 1
  10              		.eabi_attribute 26, 1
  11              		.eabi_attribute 30, 4
  12              		.eabi_attribute 34, 1
  13              		.eabi_attribute 18, 4
  14              		.thumb
  15              		.file	"AeroQuadMain.cpp"
  16              		.text
  17              	.Ltext0:
  18              		.cfi_sections	.debug_frame
  19              		.section	.text.systick_get_count,"ax",%progbits
  20              		.align	1
  21              		.thumb
  22              		.thumb_func
  24              	systick_get_count:
  25              	.LFB53:
  26              		.file 1 "../Libmaple/libmaple/libmaple/systick.h"
   1:../Libmaple/libmaple/libmaple/systick.h **** /******************************************************************************
   2:../Libmaple/libmaple/libmaple/systick.h ****  * The MIT License
   3:../Libmaple/libmaple/libmaple/systick.h ****  *
   4:../Libmaple/libmaple/libmaple/systick.h ****  * Copyright (c) 2010 Perry Hung.
   5:../Libmaple/libmaple/libmaple/systick.h ****  *
   6:../Libmaple/libmaple/libmaple/systick.h ****  * Permission is hereby granted, free of charge, to any person
   7:../Libmaple/libmaple/libmaple/systick.h ****  * obtaining a copy of this software and associated documentation
   8:../Libmaple/libmaple/libmaple/systick.h ****  * files (the "Software"), to deal in the Software without
   9:../Libmaple/libmaple/libmaple/systick.h ****  * restriction, including without limitation the rights to use, copy,
  10:../Libmaple/libmaple/libmaple/systick.h ****  * modify, merge, publish, distribute, sublicense, and/or sell copies
  11:../Libmaple/libmaple/libmaple/systick.h ****  * of the Software, and to permit persons to whom the Software is
  12:../Libmaple/libmaple/libmaple/systick.h ****  * furnished to do so, subject to the following conditions:
  13:../Libmaple/libmaple/libmaple/systick.h ****  *
  14:../Libmaple/libmaple/libmaple/systick.h ****  * The above copyright notice and this permission notice shall be
  15:../Libmaple/libmaple/libmaple/systick.h ****  * included in all copies or substantial portions of the Software.
  16:../Libmaple/libmaple/libmaple/systick.h ****  *
  17:../Libmaple/libmaple/libmaple/systick.h ****  * THE SOFTWARE IS PROVIDED "AS IS", WITHOUT WARRANTY OF ANY KIND,
  18:../Libmaple/libmaple/libmaple/systick.h ****  * EXPRESS OR IMPLIED, INCLUDING BUT NOT LIMITED TO THE WARRANTIES OF
  19:../Libmaple/libmaple/libmaple/systick.h ****  * MERCHANTABILITY, FITNESS FOR A PARTICULAR PURPOSE AND
  20:../Libmaple/libmaple/libmaple/systick.h ****  * NONINFRINGEMENT. IN NO EVENT SHALL THE AUTHORS OR COPYRIGHT HOLDERS
  21:../Libmaple/libmaple/libmaple/systick.h ****  * BE LIABLE FOR ANY CLAIM, DAMAGES OR OTHER LIABILITY, WHETHER IN AN
  22:../Libmaple/libmaple/libmaple/systick.h ****  * ACTION OF CONTRACT, TORT OR OTHERWISE, ARISING FROM, OUT OF OR IN
  23:../Libmaple/libmaple/libmaple/systick.h ****  * CONNECTION WITH THE SOFTWARE OR THE USE OR OTHER DEALINGS IN THE
  24:../Libmaple/libmaple/libmaple/systick.h ****  * SOFTWARE.
  25:../Libmaple/libmaple/libmaple/systick.h ****  *****************************************************************************/
  26:../Libmaple/libmaple/libmaple/systick.h **** 
  27:../Libmaple/libmaple/libmaple/systick.h **** /**
  28:../Libmaple/libmaple/libmaple/systick.h ****  * @file systick.h
  29:../Libmaple/libmaple/libmaple/systick.h ****  *
  30:../Libmaple/libmaple/libmaple/systick.h ****  * @brief Various system timer definitions
  31:../Libmaple/libmaple/libmaple/systick.h ****  */
  32:../Libmaple/libmaple/libmaple/systick.h **** 
  33:../Libmaple/libmaple/libmaple/systick.h **** #ifndef _SYSTICK_H_
  34:../Libmaple/libmaple/libmaple/systick.h **** #define _SYSTICK_H_
  35:../Libmaple/libmaple/libmaple/systick.h **** 
  36:../Libmaple/libmaple/libmaple/systick.h **** #include "libmaple_types.h"
  37:../Libmaple/libmaple/libmaple/systick.h **** #include "util.h"
  38:../Libmaple/libmaple/libmaple/systick.h **** 
  39:../Libmaple/libmaple/libmaple/systick.h **** #ifdef __cplusplus
  40:../Libmaple/libmaple/libmaple/systick.h **** extern "C"{
  41:../Libmaple/libmaple/libmaple/systick.h **** #endif
  42:../Libmaple/libmaple/libmaple/systick.h **** 
  43:../Libmaple/libmaple/libmaple/systick.h **** /** SysTick register map type */
  44:../Libmaple/libmaple/libmaple/systick.h **** typedef struct systick_reg_map {
  45:../Libmaple/libmaple/libmaple/systick.h ****     __io uint32 CSR;            /**< Control and status register */
  46:../Libmaple/libmaple/libmaple/systick.h ****     __io uint32 RVR;            /**< Reload value register */
  47:../Libmaple/libmaple/libmaple/systick.h ****     __io uint32 CNT;            /**< Current value register ("count") */
  48:../Libmaple/libmaple/libmaple/systick.h ****     __io uint32 CVR;            /**< Calibration value register */
  49:../Libmaple/libmaple/libmaple/systick.h **** } systick_reg_map;
  50:../Libmaple/libmaple/libmaple/systick.h **** 
  51:../Libmaple/libmaple/libmaple/systick.h **** /** SysTick register map base pointer */
  52:../Libmaple/libmaple/libmaple/systick.h **** #define SYSTICK_BASE                    ((struct systick_reg_map*)0xE000E010)
  53:../Libmaple/libmaple/libmaple/systick.h **** 
  54:../Libmaple/libmaple/libmaple/systick.h **** /*
  55:../Libmaple/libmaple/libmaple/systick.h ****  * Register bit definitions.
  56:../Libmaple/libmaple/libmaple/systick.h ****  */
  57:../Libmaple/libmaple/libmaple/systick.h **** 
  58:../Libmaple/libmaple/libmaple/systick.h **** /* Control and status register */
  59:../Libmaple/libmaple/libmaple/systick.h **** 
  60:../Libmaple/libmaple/libmaple/systick.h **** #define SYSTICK_CSR_COUNTFLAG           BIT(16)
  61:../Libmaple/libmaple/libmaple/systick.h **** #define SYSTICK_CSR_CLKSOURCE           BIT(2)
  62:../Libmaple/libmaple/libmaple/systick.h **** #define SYSTICK_CSR_CLKSOURCE_EXTERNAL  0
  63:../Libmaple/libmaple/libmaple/systick.h **** #define SYSTICK_CSR_CLKSOURCE_CORE      BIT(2)
  64:../Libmaple/libmaple/libmaple/systick.h **** #define SYSTICK_CSR_TICKINT             BIT(1)
  65:../Libmaple/libmaple/libmaple/systick.h **** #define SYSTICK_CSR_TICKINT_PEND        BIT(1)
  66:../Libmaple/libmaple/libmaple/systick.h **** #define SYSTICK_CSR_TICKINT_NO_PEND     0
  67:../Libmaple/libmaple/libmaple/systick.h **** #define SYSTICK_CSR_ENABLE              BIT(0)
  68:../Libmaple/libmaple/libmaple/systick.h **** #define SYSTICK_CSR_ENABLE_MULTISHOT    BIT(0)
  69:../Libmaple/libmaple/libmaple/systick.h **** #define SYSTICK_CSR_ENABLE_DISABLED     0
  70:../Libmaple/libmaple/libmaple/systick.h **** 
  71:../Libmaple/libmaple/libmaple/systick.h **** /* Calibration value register */
  72:../Libmaple/libmaple/libmaple/systick.h **** 
  73:../Libmaple/libmaple/libmaple/systick.h **** #define SYSTICK_CVR_NOREF               BIT(31)
  74:../Libmaple/libmaple/libmaple/systick.h **** #define SYSTICK_CVR_SKEW                BIT(30)
  75:../Libmaple/libmaple/libmaple/systick.h **** #define SYSTICK_CVR_TENMS               0xFFFFFF
  76:../Libmaple/libmaple/libmaple/systick.h **** 
  77:../Libmaple/libmaple/libmaple/systick.h **** /** System elapsed time, in milliseconds */
  78:../Libmaple/libmaple/libmaple/systick.h **** extern volatile uint32 systick_uptime_millis;
  79:../Libmaple/libmaple/libmaple/systick.h **** 
  80:../Libmaple/libmaple/libmaple/systick.h **** /**
  81:../Libmaple/libmaple/libmaple/systick.h ****  * @brief Returns the system uptime, in milliseconds.
  82:../Libmaple/libmaple/libmaple/systick.h ****  */
  83:../Libmaple/libmaple/libmaple/systick.h **** static inline uint32 systick_uptime(void) {
  84:../Libmaple/libmaple/libmaple/systick.h ****     return systick_uptime_millis;
  85:../Libmaple/libmaple/libmaple/systick.h **** }
  86:../Libmaple/libmaple/libmaple/systick.h **** 
  87:../Libmaple/libmaple/libmaple/systick.h **** 
  88:../Libmaple/libmaple/libmaple/systick.h **** void systick_init(uint32 reload_val);
  89:../Libmaple/libmaple/libmaple/systick.h **** void systick_disable();
  90:../Libmaple/libmaple/libmaple/systick.h **** void systick_enable();
  91:../Libmaple/libmaple/libmaple/systick.h **** 
  92:../Libmaple/libmaple/libmaple/systick.h **** /**
  93:../Libmaple/libmaple/libmaple/systick.h ****  * @brief Returns the current value of the SysTick counter.
  94:../Libmaple/libmaple/libmaple/systick.h ****  */
  95:../Libmaple/libmaple/libmaple/systick.h **** static inline uint32 systick_get_count(void) {
  27              		.loc 1 95 0
  28              		.cfi_startproc
  29              		@ args = 0, pretend = 0, frame = 0
  30              		@ frame_needed = 0, uses_anonymous_args = 0
  31              		@ link register save eliminated.
  96:../Libmaple/libmaple/libmaple/systick.h ****     return SYSTICK_BASE->CNT;
  32              		.loc 1 96 0
  33 0000 014B     		ldr	r3, .L2
  34 0002 9868     		ldr	r0, [r3, #8]
  97:../Libmaple/libmaple/libmaple/systick.h **** }
  35              		.loc 1 97 0
  36 0004 7047     		bx	lr
  37              	.L3:
  38 0006 00BF     		.align	2
  39              	.L2:
  40 0008 10E000E0 		.word	-536813552
  41              		.cfi_endproc
  42              	.LFE53:
  44              		.section	.text._ZL6millisv,"ax",%progbits
  45              		.align	1
  46              		.thumb
  47              		.thumb_func
  49              	_ZL6millisv:
  50              	.LFB55:
  51              		.file 2 "../Libmaple/libmaple/wirish/wirish_time.h"
   1:../Libmaple/libmaple/wirish/wirish_time.h **** /******************************************************************************
   2:../Libmaple/libmaple/wirish/wirish_time.h ****  * The MIT License
   3:../Libmaple/libmaple/wirish/wirish_time.h ****  *
   4:../Libmaple/libmaple/wirish/wirish_time.h ****  * Copyright (c) 2010 Perry Hung.
   5:../Libmaple/libmaple/wirish/wirish_time.h ****  *
   6:../Libmaple/libmaple/wirish/wirish_time.h ****  * Permission is hereby granted, free of charge, to any person
   7:../Libmaple/libmaple/wirish/wirish_time.h ****  * obtaining a copy of this software and associated documentation
   8:../Libmaple/libmaple/wirish/wirish_time.h ****  * files (the "Software"), to deal in the Software without
   9:../Libmaple/libmaple/wirish/wirish_time.h ****  * restriction, including without limitation the rights to use, copy,
  10:../Libmaple/libmaple/wirish/wirish_time.h ****  * modify, merge, publish, distribute, sublicense, and/or sell copies
  11:../Libmaple/libmaple/wirish/wirish_time.h ****  * of the Software, and to permit persons to whom the Software is
  12:../Libmaple/libmaple/wirish/wirish_time.h ****  * furnished to do so, subject to the following conditions:
  13:../Libmaple/libmaple/wirish/wirish_time.h ****  *
  14:../Libmaple/libmaple/wirish/wirish_time.h ****  * The above copyright notice and this permission notice shall be
  15:../Libmaple/libmaple/wirish/wirish_time.h ****  * included in all copies or substantial portions of the Software.
  16:../Libmaple/libmaple/wirish/wirish_time.h ****  *
  17:../Libmaple/libmaple/wirish/wirish_time.h ****  * THE SOFTWARE IS PROVIDED "AS IS", WITHOUT WARRANTY OF ANY KIND,
  18:../Libmaple/libmaple/wirish/wirish_time.h ****  * EXPRESS OR IMPLIED, INCLUDING BUT NOT LIMITED TO THE WARRANTIES OF
  19:../Libmaple/libmaple/wirish/wirish_time.h ****  * MERCHANTABILITY, FITNESS FOR A PARTICULAR PURPOSE AND
  20:../Libmaple/libmaple/wirish/wirish_time.h ****  * NONINFRINGEMENT. IN NO EVENT SHALL THE AUTHORS OR COPYRIGHT HOLDERS
  21:../Libmaple/libmaple/wirish/wirish_time.h ****  * BE LIABLE FOR ANY CLAIM, DAMAGES OR OTHER LIABILITY, WHETHER IN AN
  22:../Libmaple/libmaple/wirish/wirish_time.h ****  * ACTION OF CONTRACT, TORT OR OTHERWISE, ARISING FROM, OUT OF OR IN
  23:../Libmaple/libmaple/wirish/wirish_time.h ****  * CONNECTION WITH THE SOFTWARE OR THE USE OR OTHER DEALINGS IN THE
  24:../Libmaple/libmaple/wirish/wirish_time.h ****  * SOFTWARE.
  25:../Libmaple/libmaple/wirish/wirish_time.h ****  *****************************************************************************/
  26:../Libmaple/libmaple/wirish/wirish_time.h **** 
  27:../Libmaple/libmaple/wirish/wirish_time.h **** /**
  28:../Libmaple/libmaple/wirish/wirish_time.h ****  * @file wirish_time.h
  29:../Libmaple/libmaple/wirish/wirish_time.h ****  * @brief Timing and delay functions.
  30:../Libmaple/libmaple/wirish/wirish_time.h ****  */
  31:../Libmaple/libmaple/wirish/wirish_time.h **** 
  32:../Libmaple/libmaple/wirish/wirish_time.h **** #ifndef __WIRISH_TIME_H_
  33:../Libmaple/libmaple/wirish/wirish_time.h **** #define __WIRISH_TIME_H_
  34:../Libmaple/libmaple/wirish/wirish_time.h **** 
  35:../Libmaple/libmaple/wirish/wirish_time.h **** #include "libmaple.h"
  36:../Libmaple/libmaple/wirish/wirish_time.h **** #include "nvic.h"
  37:../Libmaple/libmaple/wirish/wirish_time.h **** #include "systick.h"
  38:../Libmaple/libmaple/wirish/wirish_time.h **** #include "boards.h"
  39:../Libmaple/libmaple/wirish/wirish_time.h **** 
  40:../Libmaple/libmaple/wirish/wirish_time.h **** #define US_PER_MS               1000
  41:../Libmaple/libmaple/wirish/wirish_time.h **** 
  42:../Libmaple/libmaple/wirish/wirish_time.h **** /**
  43:../Libmaple/libmaple/wirish/wirish_time.h ****  * Returns time (in milliseconds) since the beginning of program
  44:../Libmaple/libmaple/wirish/wirish_time.h ****  * execution. On overflow, restarts at 0.
  45:../Libmaple/libmaple/wirish/wirish_time.h ****  * @see micros()
  46:../Libmaple/libmaple/wirish/wirish_time.h ****  */
  47:../Libmaple/libmaple/wirish/wirish_time.h **** static inline uint32 millis(void) {
  52              		.loc 2 47 0
  53              		.cfi_startproc
  54              		@ args = 0, pretend = 0, frame = 0
  55              		@ frame_needed = 0, uses_anonymous_args = 0
  56              		@ link register save eliminated.
  57              	.LBB5:
  58              	.LBB6:
  84:../Libmaple/libmaple/libmaple/systick.h ****     return systick_uptime_millis;
  59              		.loc 1 84 0
  60 0000 014B     		ldr	r3, .L5
  61 0002 1868     		ldr	r0, [r3, #0]
  62              	.LBE6:
  63              	.LBE5:
  48:../Libmaple/libmaple/wirish/wirish_time.h ****     return systick_uptime();
  49:../Libmaple/libmaple/wirish/wirish_time.h **** }
  64              		.loc 2 49 0
  65 0004 7047     		bx	lr
  66              	.L6:
  67 0006 00BF     		.align	2
  68              	.L5:
  69 0008 00000000 		.word	systick_uptime_millis
  70              		.cfi_endproc
  71              	.LFE55:
  73              		.section	.text._ZL6microsv,"ax",%progbits
  74              		.align	1
  75              		.thumb
  76              		.thumb_func
  78              	_ZL6microsv:
  79              	.LFB56:
  50:../Libmaple/libmaple/wirish/wirish_time.h **** 
  51:../Libmaple/libmaple/wirish/wirish_time.h **** /**
  52:../Libmaple/libmaple/wirish/wirish_time.h ****  * Returns time (in microseconds) since the beginning of program
  53:../Libmaple/libmaple/wirish/wirish_time.h ****  * execution.  On overflow, restarts at 0.
  54:../Libmaple/libmaple/wirish/wirish_time.h ****  * @see millis()
  55:../Libmaple/libmaple/wirish/wirish_time.h ****  */
  56:../Libmaple/libmaple/wirish/wirish_time.h **** static inline uint32 micros(void) {
  80              		.loc 2 56 0
  81              		.cfi_startproc
  82              		@ args = 0, pretend = 0, frame = 0
  83              		@ frame_needed = 0, uses_anonymous_args = 0
  84 0000 38B5     		push	{r3, r4, r5, lr}
  85              	.LCFI0:
  86              		.cfi_def_cfa_offset 16
  87              		.cfi_offset 14, -4
  88              		.cfi_offset 5, -8
  89              		.cfi_offset 4, -12
  90              		.cfi_offset 3, -16
  91              	.L8:
  92              	.LBB10:
  57:../Libmaple/libmaple/wirish/wirish_time.h ****     uint32 ms;
  58:../Libmaple/libmaple/wirish/wirish_time.h ****     uint32 cycle_cnt;
  59:../Libmaple/libmaple/wirish/wirish_time.h ****     uint32 res;
  60:../Libmaple/libmaple/wirish/wirish_time.h **** 
  61:../Libmaple/libmaple/wirish/wirish_time.h ****     do {
  62:../Libmaple/libmaple/wirish/wirish_time.h ****         ms = millis();
  93              		.loc 2 62 0 discriminator 1
  94 0002 FFF7FEFF 		bl	_ZL6millisv
  95 0006 0446     		mov	r4, r0
  96              	.LVL0:
  63:../Libmaple/libmaple/wirish/wirish_time.h ****         cycle_cnt = systick_get_count();
  97              		.loc 2 63 0 discriminator 1
  98 0008 FFF7FEFF 		bl	systick_get_count
  99              	.LVL1:
 100 000c 0546     		mov	r5, r0
  64:../Libmaple/libmaple/wirish/wirish_time.h ****         asm volatile("nop"); //allow interrupt to fire
 101              		.loc 2 64 0 discriminator 1
 102              	@ 64 "../Libmaple/libmaple/wirish/wirish_time.h" 1
 103 000e 00BF     		nop
 104              	@ 0 "" 2
  65:../Libmaple/libmaple/wirish/wirish_time.h ****         asm volatile("nop");
 105              		.loc 2 65 0 discriminator 1
 106              	@ 65 "../Libmaple/libmaple/wirish/wirish_time.h" 1
 107 0010 00BF     		nop
 108              	@ 0 "" 2
  66:../Libmaple/libmaple/wirish/wirish_time.h ****     } while (ms != millis());
 109              		.loc 2 66 0 discriminator 1
 110              		.thumb
 111 0012 FFF7FEFF 		bl	_ZL6millisv
  61:../Libmaple/libmaple/wirish/wirish_time.h ****     do {
 112              		.loc 2 61 0 discriminator 1
 113 0016 8442     		cmp	r4, r0
 114 0018 F3D1     		bne	.L8
 115              	.LBB11:
 116              	.LBB12:
  98:../Libmaple/libmaple/libmaple/systick.h **** 
  99:../Libmaple/libmaple/libmaple/systick.h **** /**
 100:../Libmaple/libmaple/libmaple/systick.h ****  * @brief Check for underflow.
 101:../Libmaple/libmaple/libmaple/systick.h ****  *
 102:../Libmaple/libmaple/libmaple/systick.h ****  * This function returns 1 if the SysTick timer has counted to 0 since
 103:../Libmaple/libmaple/libmaple/systick.h ****  * the last time it was called.  However, any reads of any part of the
 104:../Libmaple/libmaple/libmaple/systick.h ****  * SysTick Control and Status Register SYSTICK_BASE->CSR will
 105:../Libmaple/libmaple/libmaple/systick.h ****  * interfere with this functionality.  See the ARM Cortex M3 Technical
 106:../Libmaple/libmaple/libmaple/systick.h ****  * Reference Manual for more details (e.g. Table 8-3 in revision r1p1).
 107:../Libmaple/libmaple/libmaple/systick.h ****  */
 108:../Libmaple/libmaple/libmaple/systick.h **** static inline uint32 systick_check_underflow(void) {
 109:../Libmaple/libmaple/libmaple/systick.h ****     return SYSTICK_BASE->CSR & SYSTICK_CSR_COUNTFLAG;
 117              		.loc 1 109 0
 118 001a 0948     		ldr	r0, .L11
 119 001c 0368     		ldr	r3, [r0, #0]
 120              	.LBE12:
 121              	.LBE11:
  67:../Libmaple/libmaple/wirish/wirish_time.h **** 
  68:../Libmaple/libmaple/wirish/wirish_time.h ****     if(systick_check_underflow()) {
 122              		.loc 2 68 0
 123 001e DB03     		lsls	r3, r3, #15
 124 0020 03D5     		bpl	.L9
  69:../Libmaple/libmaple/wirish/wirish_time.h ****     	ms++;
  70:../Libmaple/libmaple/wirish/wirish_time.h ****     	cycle_cnt = systick_get_count();
 125              		.loc 2 70 0
 126 0022 FFF7FEFF 		bl	systick_get_count
  69:../Libmaple/libmaple/wirish/wirish_time.h ****     	ms++;
 127              		.loc 2 69 0
 128 0026 0134     		adds	r4, r4, #1
 129              	.LVL2:
 130              		.loc 2 70 0
 131 0028 0546     		mov	r5, r0
 132              	.LVL3:
 133              	.L9:
  71:../Libmaple/libmaple/wirish/wirish_time.h ****     }
  72:../Libmaple/libmaple/wirish/wirish_time.h **** 
  73:../Libmaple/libmaple/wirish/wirish_time.h ****     /* SYSTICK_RELOAD_VAL is 1 less than the number of cycles it
  74:../Libmaple/libmaple/wirish/wirish_time.h ****        actually takes to complete a SysTick reload */
  75:../Libmaple/libmaple/wirish/wirish_time.h ****     res = (ms * US_PER_MS) +
  76:../Libmaple/libmaple/wirish/wirish_time.h ****         (SYSTICK_RELOAD_VAL + 1 - cycle_cnt) / CYCLES_PER_MICROSECOND;
 134              		.loc 2 76 0
 135 002a C5F52435 		rsb	r5, r5, #167936
 136              	.LVL4:
 137 002e 4035     		adds	r5, r5, #64
 138 0030 A822     		movs	r2, #168
 139 0032 B5FBF2F5 		udiv	r5, r5, r2
 140              	.LBE10:
  77:../Libmaple/libmaple/wirish/wirish_time.h **** 
  78:../Libmaple/libmaple/wirish/wirish_time.h ****     return res;
  79:../Libmaple/libmaple/wirish/wirish_time.h **** }
 141              		.loc 2 79 0
 142 0036 4FF47A71 		mov	r1, #1000
 143 003a 01FB0450 		mla	r0, r1, r4, r5
 144 003e 38BD     		pop	{r3, r4, r5, pc}
 145              	.L12:
 146              		.align	2
 147              	.L11:
 148 0040 10E000E0 		.word	-536813552
 149              		.cfi_endproc
 150              	.LFE56:
 152              		.section	.text._Z8nmeaInitv,"ax",%progbits
 153              		.align	1
 154              		.global	_Z8nmeaInitv
 155              		.thumb
 156              		.thumb_func
 158              	_Z8nmeaInitv:
 159              	.LFB126:
 160              		.file 3 "../Libraries/AQ_Gps/nmea.h"
   1:../Libraries/AQ_Gps/nmea.h **** /*
   2:../Libraries/AQ_Gps/nmea.h ****   AeroQuad v3.x - Sep 2012
   3:../Libraries/AQ_Gps/nmea.h ****   www.AeroQuad.com
   4:../Libraries/AQ_Gps/nmea.h ****   Copyright (c) 2012 AeroQuad developers.  All rights reserved.
   5:../Libraries/AQ_Gps/nmea.h ****   An Open Source Arduino based multicopter.
   6:../Libraries/AQ_Gps/nmea.h **** 
   7:../Libraries/AQ_Gps/nmea.h ****   This program is free software: you can redistribute it and/or modify
   8:../Libraries/AQ_Gps/nmea.h ****   it under the terms of the GNU General Public License as published by
   9:../Libraries/AQ_Gps/nmea.h ****   the Free Software Foundation, either version 3 of the License, or
  10:../Libraries/AQ_Gps/nmea.h ****   (at your option) any later version.
  11:../Libraries/AQ_Gps/nmea.h **** 
  12:../Libraries/AQ_Gps/nmea.h ****   This program is distributed in the hope that it will be useful,
  13:../Libraries/AQ_Gps/nmea.h ****   but WITHOUT ANY WARRANTY; without even the implied warranty of
  14:../Libraries/AQ_Gps/nmea.h ****   MERCHANTABILITY or FITNESS FOR A PARTICULAR PURPOSE. See the
  15:../Libraries/AQ_Gps/nmea.h ****   GNU General Public License for more details.
  16:../Libraries/AQ_Gps/nmea.h **** 
  17:../Libraries/AQ_Gps/nmea.h ****   You should have received a copy of the GNU General Public License
  18:../Libraries/AQ_Gps/nmea.h ****   along with this program. If not, see <http://www.gnu.org/licenses/>.
  19:../Libraries/AQ_Gps/nmea.h **** */
  20:../Libraries/AQ_Gps/nmea.h **** 
  21:../Libraries/AQ_Gps/nmea.h **** /* simple NMEA parser */
  22:../Libraries/AQ_Gps/nmea.h **** 
  23:../Libraries/AQ_Gps/nmea.h **** #ifndef _AQ_nmea_H_
  24:../Libraries/AQ_Gps/nmea.h **** #define _AQ_nmea_H_
  25:../Libraries/AQ_Gps/nmea.h **** 
  26:../Libraries/AQ_Gps/nmea.h **** #define SENTENCESIZE 80 // Maximum size of sentence (80 in NMEA)
  27:../Libraries/AQ_Gps/nmea.h **** char sentenceBuffer[SENTENCESIZE+1];
  28:../Libraries/AQ_Gps/nmea.h **** unsigned char sentenceLength=0;
  29:../Libraries/AQ_Gps/nmea.h **** unsigned char sentenceCalculatedXOR;
  30:../Libraries/AQ_Gps/nmea.h **** unsigned char sentenceXOR;
  31:../Libraries/AQ_Gps/nmea.h **** 
  32:../Libraries/AQ_Gps/nmea.h **** enum gpsProcessDataState { WAIT_START, READ, READ_CS1, READ_CS2 } gpsProcessDataState = WAIT_START;
  33:../Libraries/AQ_Gps/nmea.h **** 
  34:../Libraries/AQ_Gps/nmea.h **** static const char nib2hex[16] = { '0','1','2','3','4','5','6','7','8','9','A','B','C','D','E','F'};
  35:../Libraries/AQ_Gps/nmea.h **** 
  36:../Libraries/AQ_Gps/nmea.h **** // initialize parser
  37:../Libraries/AQ_Gps/nmea.h **** void nmeaInit() {
 161              		.loc 3 37 0
 162              		.cfi_startproc
 163              		@ args = 0, pretend = 0, frame = 0
 164              		@ frame_needed = 0, uses_anonymous_args = 0
 165              		@ link register save eliminated.
  38:../Libraries/AQ_Gps/nmea.h **** 
  39:../Libraries/AQ_Gps/nmea.h ****   gpsProcessDataState = WAIT_START;
 166              		.loc 3 39 0
 167 0000 014B     		ldr	r3, .L14
 168 0002 0022     		movs	r2, #0
 169 0004 1A70     		strb	r2, [r3, #0]
  40:../Libraries/AQ_Gps/nmea.h **** }
 170              		.loc 3 40 0
 171 0006 7047     		bx	lr
 172              	.L15:
 173              		.align	2
 174              	.L14:
 175 0008 00000000 		.word	.LANCHOR0
 176              		.cfi_endproc
 177              	.LFE126:
 179              		.section	.text.timer_set_compare.isra.2,"ax",%progbits
 180              		.align	1
 181              		.thumb
 182              		.thumb_func
 184              	timer_set_compare.isra.2:
 185              	.LFB323:
 186              		.file 4 "../Libmaple/libmaple/libmaple/timer.h"
   1:../Libmaple/libmaple/libmaple/timer.h **** /******************************************************************************
   2:../Libmaple/libmaple/libmaple/timer.h ****  * The MIT License
   3:../Libmaple/libmaple/libmaple/timer.h ****  *
   4:../Libmaple/libmaple/libmaple/timer.h ****  * Copyright (c) 2011 LeafLabs, LLC.
   5:../Libmaple/libmaple/libmaple/timer.h ****  *
   6:../Libmaple/libmaple/libmaple/timer.h ****  * Permission is hereby granted, free of charge, to any person
   7:../Libmaple/libmaple/libmaple/timer.h ****  * obtaining a copy of this software and associated documentation
   8:../Libmaple/libmaple/libmaple/timer.h ****  * files (the "Software"), to deal in the Software without
   9:../Libmaple/libmaple/libmaple/timer.h ****  * restriction, including without limitation the rights to use, copy,
  10:../Libmaple/libmaple/libmaple/timer.h ****  * modify, merge, publish, distribute, sublicense, and/or sell copies
  11:../Libmaple/libmaple/libmaple/timer.h ****  * of the Software, and to permit persons to whom the Software is
  12:../Libmaple/libmaple/libmaple/timer.h ****  * furnished to do so, subject to the following conditions:
  13:../Libmaple/libmaple/libmaple/timer.h ****  *
  14:../Libmaple/libmaple/libmaple/timer.h ****  * The above copyright notice and this permission notice shall be
  15:../Libmaple/libmaple/libmaple/timer.h ****  * included in all copies or substantial portions of the Software.
  16:../Libmaple/libmaple/libmaple/timer.h ****  *
  17:../Libmaple/libmaple/libmaple/timer.h ****  * THE SOFTWARE IS PROVIDED "AS IS", WITHOUT WARRANTY OF ANY KIND,
  18:../Libmaple/libmaple/libmaple/timer.h ****  * EXPRESS OR IMPLIED, INCLUDING BUT NOT LIMITED TO THE WARRANTIES OF
  19:../Libmaple/libmaple/libmaple/timer.h ****  * MERCHANTABILITY, FITNESS FOR A PARTICULAR PURPOSE AND
  20:../Libmaple/libmaple/libmaple/timer.h ****  * NONINFRINGEMENT. IN NO EVENT SHALL THE AUTHORS OR COPYRIGHT HOLDERS
  21:../Libmaple/libmaple/libmaple/timer.h ****  * BE LIABLE FOR ANY CLAIM, DAMAGES OR OTHER LIABILITY, WHETHER IN AN
  22:../Libmaple/libmaple/libmaple/timer.h ****  * ACTION OF CONTRACT, TORT OR OTHERWISE, ARISING FROM, OUT OF OR IN
  23:../Libmaple/libmaple/libmaple/timer.h ****  * CONNECTION WITH THE SOFTWARE OR THE USE OR OTHER DEALINGS IN THE
  24:../Libmaple/libmaple/libmaple/timer.h ****  * SOFTWARE.
  25:../Libmaple/libmaple/libmaple/timer.h ****  *****************************************************************************/
  26:../Libmaple/libmaple/libmaple/timer.h **** 
  27:../Libmaple/libmaple/libmaple/timer.h **** /**
  28:../Libmaple/libmaple/libmaple/timer.h ****  * @file   timer.h
  29:../Libmaple/libmaple/libmaple/timer.h ****  * @author Marti Bolivar <mbolivar@leaflabs.com>
  30:../Libmaple/libmaple/libmaple/timer.h ****  * @brief  New-style timer interface.
  31:../Libmaple/libmaple/libmaple/timer.h ****  *
  32:../Libmaple/libmaple/libmaple/timer.h ****  * Replaces old timers.h implementation.
  33:../Libmaple/libmaple/libmaple/timer.h ****  */
  34:../Libmaple/libmaple/libmaple/timer.h **** 
  35:../Libmaple/libmaple/libmaple/timer.h **** #ifndef _TIMERS_H_
  36:../Libmaple/libmaple/libmaple/timer.h **** #define _TIMERS_H_
  37:../Libmaple/libmaple/libmaple/timer.h **** 
  38:../Libmaple/libmaple/libmaple/timer.h **** #include "libmaple.h"
  39:../Libmaple/libmaple/libmaple/timer.h **** #include "rcc.h"
  40:../Libmaple/libmaple/libmaple/timer.h **** #include "nvic.h"
  41:../Libmaple/libmaple/libmaple/timer.h **** #include "bitband.h"
  42:../Libmaple/libmaple/libmaple/timer.h **** 
  43:../Libmaple/libmaple/libmaple/timer.h **** #ifdef __cplusplus
  44:../Libmaple/libmaple/libmaple/timer.h **** extern "C"{
  45:../Libmaple/libmaple/libmaple/timer.h **** #endif
  46:../Libmaple/libmaple/libmaple/timer.h **** 
  47:../Libmaple/libmaple/libmaple/timer.h **** /*
  48:../Libmaple/libmaple/libmaple/timer.h ****  * Register maps and devices
  49:../Libmaple/libmaple/libmaple/timer.h ****  */
  50:../Libmaple/libmaple/libmaple/timer.h **** 
  51:../Libmaple/libmaple/libmaple/timer.h **** /** Advanced control timer register map type */
  52:../Libmaple/libmaple/libmaple/timer.h **** typedef struct timer_adv_reg_map {
  53:../Libmaple/libmaple/libmaple/timer.h ****     __io uint32 CR1;            /**< Control register 1 */
  54:../Libmaple/libmaple/libmaple/timer.h ****     __io uint32 CR2;            /**< Control register 2 */
  55:../Libmaple/libmaple/libmaple/timer.h ****     __io uint32 SMCR;           /**< Slave mode control register */
  56:../Libmaple/libmaple/libmaple/timer.h ****     __io uint32 DIER;           /**< DMA/Interrupt enable register */
  57:../Libmaple/libmaple/libmaple/timer.h ****     __io uint32 SR;             /**< Status register */
  58:../Libmaple/libmaple/libmaple/timer.h ****     __io uint32 EGR;            /**< Event generation register  */
  59:../Libmaple/libmaple/libmaple/timer.h ****     __io uint32 CCMR1;          /**< Capture/compare mode register 1 */
  60:../Libmaple/libmaple/libmaple/timer.h ****     __io uint32 CCMR2;          /**< Capture/compare mode register 2 */
  61:../Libmaple/libmaple/libmaple/timer.h ****     __io uint32 CCER;           /**< Capture/compare enable register */
  62:../Libmaple/libmaple/libmaple/timer.h ****     __io uint32 CNT;            /**< Counter */
  63:../Libmaple/libmaple/libmaple/timer.h ****     __io uint32 PSC;            /**< Prescaler */
  64:../Libmaple/libmaple/libmaple/timer.h ****     __io uint32 ARR;            /**< Auto-reload register */
  65:../Libmaple/libmaple/libmaple/timer.h ****     __io uint32 RCR;            /**< Repetition counter register */
  66:../Libmaple/libmaple/libmaple/timer.h ****     __io uint32 CCR1;           /**< Capture/compare register 1 */
  67:../Libmaple/libmaple/libmaple/timer.h ****     __io uint32 CCR2;           /**< Capture/compare register 2 */
  68:../Libmaple/libmaple/libmaple/timer.h ****     __io uint32 CCR3;           /**< Capture/compare register 3 */
  69:../Libmaple/libmaple/libmaple/timer.h ****     __io uint32 CCR4;           /**< Capture/compare register 4 */
  70:../Libmaple/libmaple/libmaple/timer.h ****     __io uint32 BDTR;           /**< Break and dead-time register */
  71:../Libmaple/libmaple/libmaple/timer.h ****     __io uint32 DCR;            /**< DMA control register */
  72:../Libmaple/libmaple/libmaple/timer.h ****     __io uint32 DMAR;           /**< DMA address for full transfer */
  73:../Libmaple/libmaple/libmaple/timer.h **** } timer_adv_reg_map;
  74:../Libmaple/libmaple/libmaple/timer.h **** 
  75:../Libmaple/libmaple/libmaple/timer.h **** /** General purpose timer register map type */
  76:../Libmaple/libmaple/libmaple/timer.h **** typedef struct timer_gen_reg_map {
  77:../Libmaple/libmaple/libmaple/timer.h ****     __io uint32 CR1;            /**< Control register 1 */
  78:../Libmaple/libmaple/libmaple/timer.h ****     __io uint32 CR2;            /**< Control register 2 */
  79:../Libmaple/libmaple/libmaple/timer.h ****     __io uint32 SMCR;           /**< Slave mode control register */
  80:../Libmaple/libmaple/libmaple/timer.h ****     __io uint32 DIER;           /**< DMA/Interrupt enable register */
  81:../Libmaple/libmaple/libmaple/timer.h ****     __io uint32 SR;             /**< Status register */
  82:../Libmaple/libmaple/libmaple/timer.h ****     __io uint32 EGR;            /**< Event generation register  */
  83:../Libmaple/libmaple/libmaple/timer.h ****     __io uint32 CCMR1;          /**< Capture/compare mode register 1 */
  84:../Libmaple/libmaple/libmaple/timer.h ****     __io uint32 CCMR2;          /**< Capture/compare mode register 2 */
  85:../Libmaple/libmaple/libmaple/timer.h ****     __io uint32 CCER;           /**< Capture/compare enable register */
  86:../Libmaple/libmaple/libmaple/timer.h ****     __io uint32 CNT;            /**< Counter */
  87:../Libmaple/libmaple/libmaple/timer.h ****     __io uint32 PSC;            /**< Prescaler */
  88:../Libmaple/libmaple/libmaple/timer.h ****     __io uint32 ARR;            /**< Auto-reload register */
  89:../Libmaple/libmaple/libmaple/timer.h ****     const uint32 RESERVED1;     /**< Reserved */
  90:../Libmaple/libmaple/libmaple/timer.h ****     __io uint32 CCR1;           /**< Capture/compare register 1 */
  91:../Libmaple/libmaple/libmaple/timer.h ****     __io uint32 CCR2;           /**< Capture/compare register 2 */
  92:../Libmaple/libmaple/libmaple/timer.h ****     __io uint32 CCR3;           /**< Capture/compare register 3 */
  93:../Libmaple/libmaple/libmaple/timer.h ****     __io uint32 CCR4;           /**< Capture/compare register 4 */
  94:../Libmaple/libmaple/libmaple/timer.h ****     const uint32 RESERVED2;     /**< Reserved */
  95:../Libmaple/libmaple/libmaple/timer.h ****     __io uint32 DCR;            /**< DMA control register */
  96:../Libmaple/libmaple/libmaple/timer.h ****     __io uint32 DMAR;           /**< DMA address for full transfer */
  97:../Libmaple/libmaple/libmaple/timer.h **** } timer_gen_reg_map;
  98:../Libmaple/libmaple/libmaple/timer.h **** 
  99:../Libmaple/libmaple/libmaple/timer.h **** /** Basic timer register map type */
 100:../Libmaple/libmaple/libmaple/timer.h **** typedef struct timer_bas_reg_map {
 101:../Libmaple/libmaple/libmaple/timer.h ****     __io uint32 CR1;            /**< Control register 1 */
 102:../Libmaple/libmaple/libmaple/timer.h ****     __io uint32 CR2;            /**< Control register 2 */
 103:../Libmaple/libmaple/libmaple/timer.h ****     const uint32 RESERVED1;     /**< Reserved */
 104:../Libmaple/libmaple/libmaple/timer.h ****     __io uint32 DIER;           /**< DMA/Interrupt enable register */
 105:../Libmaple/libmaple/libmaple/timer.h ****     __io uint32 SR;             /**< Status register */
 106:../Libmaple/libmaple/libmaple/timer.h ****     __io uint32 EGR;            /**< Event generation register  */
 107:../Libmaple/libmaple/libmaple/timer.h ****     const uint32 RESERVED2;     /**< Reserved */
 108:../Libmaple/libmaple/libmaple/timer.h ****     const uint32 RESERVED3;     /**< Reserved */
 109:../Libmaple/libmaple/libmaple/timer.h ****     const uint32 RESERVED4;     /**< Reserved */
 110:../Libmaple/libmaple/libmaple/timer.h ****     __io uint32 CNT;            /**< Counter */
 111:../Libmaple/libmaple/libmaple/timer.h ****     __io uint32 PSC;            /**< Prescaler */
 112:../Libmaple/libmaple/libmaple/timer.h ****     __io uint32 ARR;            /**< Auto-reload register */
 113:../Libmaple/libmaple/libmaple/timer.h **** } timer_bas_reg_map;
 114:../Libmaple/libmaple/libmaple/timer.h **** 
 115:../Libmaple/libmaple/libmaple/timer.h **** 
 116:../Libmaple/libmaple/libmaple/timer.h **** #ifdef STM32F2
 117:../Libmaple/libmaple/libmaple/timer.h ****   /** Timer 1 register map base pointer */
 118:../Libmaple/libmaple/libmaple/timer.h ****   #define TIMER1_BASE        ((struct timer_adv_reg_map*)0x40010000)
 119:../Libmaple/libmaple/libmaple/timer.h **** #else
 120:../Libmaple/libmaple/libmaple/timer.h ****   /** Timer 1 register map base pointer */
 121:../Libmaple/libmaple/libmaple/timer.h ****   #define TIMER1_BASE        ((struct timer_adv_reg_map*)0x40012C00)
 122:../Libmaple/libmaple/libmaple/timer.h **** #endif
 123:../Libmaple/libmaple/libmaple/timer.h **** /** Timer 2 register map base pointer */
 124:../Libmaple/libmaple/libmaple/timer.h **** #define TIMER2_BASE        ((struct timer_gen_reg_map*)0x40000000)
 125:../Libmaple/libmaple/libmaple/timer.h **** /** Timer 3 register map base pointer */
 126:../Libmaple/libmaple/libmaple/timer.h **** #define TIMER3_BASE        ((struct timer_gen_reg_map*)0x40000400)
 127:../Libmaple/libmaple/libmaple/timer.h **** /** Timer 4 register map base pointer */
 128:../Libmaple/libmaple/libmaple/timer.h **** #define TIMER4_BASE        ((struct timer_gen_reg_map*)0x40000800)
 129:../Libmaple/libmaple/libmaple/timer.h **** #ifdef STM32_HIGH_DENSITY
 130:../Libmaple/libmaple/libmaple/timer.h **** /** Timer 5 register map base pointer */
 131:../Libmaple/libmaple/libmaple/timer.h **** #define TIMER5_BASE        ((struct timer_gen_reg_map*)0x40000C00)
 132:../Libmaple/libmaple/libmaple/timer.h **** /** Timer 6 register map base pointer */
 133:../Libmaple/libmaple/libmaple/timer.h **** #define TIMER6_BASE        ((struct timer_bas_reg_map*)0x40001000)
 134:../Libmaple/libmaple/libmaple/timer.h **** /** Timer 7 register map base pointer */
 135:../Libmaple/libmaple/libmaple/timer.h **** #define TIMER7_BASE        ((struct timer_bas_reg_map*)0x40001400)
 136:../Libmaple/libmaple/libmaple/timer.h **** 
 137:../Libmaple/libmaple/libmaple/timer.h **** #ifdef STM32F2
 138:../Libmaple/libmaple/libmaple/timer.h ****   /** Timer 8 register map base pointer */
 139:../Libmaple/libmaple/libmaple/timer.h ****   #define TIMER8_BASE        ((struct timer_adv_reg_map*)0x40010400)
 140:../Libmaple/libmaple/libmaple/timer.h **** #else
 141:../Libmaple/libmaple/libmaple/timer.h ****   /** Timer 8 register map base pointer */
 142:../Libmaple/libmaple/libmaple/timer.h ****   #define TIMER8_BASE        ((struct timer_adv_reg_map*)0x40013400)
 143:../Libmaple/libmaple/libmaple/timer.h **** #endif
 144:../Libmaple/libmaple/libmaple/timer.h **** #endif
 145:../Libmaple/libmaple/libmaple/timer.h **** 
 146:../Libmaple/libmaple/libmaple/timer.h **** /*
 147:../Libmaple/libmaple/libmaple/timer.h ****  * Timer devices
 148:../Libmaple/libmaple/libmaple/timer.h ****  */
 149:../Libmaple/libmaple/libmaple/timer.h **** 
 150:../Libmaple/libmaple/libmaple/timer.h **** /**
 151:../Libmaple/libmaple/libmaple/timer.h ****  * @brief Timer register map type.
 152:../Libmaple/libmaple/libmaple/timer.h ****  *
 153:../Libmaple/libmaple/libmaple/timer.h ****  * Just holds a pointer to the correct type of register map, based on
 154:../Libmaple/libmaple/libmaple/timer.h ****  * the timer's type.
 155:../Libmaple/libmaple/libmaple/timer.h ****  */
 156:../Libmaple/libmaple/libmaple/timer.h **** typedef union timer_reg_map {
 157:../Libmaple/libmaple/libmaple/timer.h ****     timer_adv_reg_map *adv;     /**< Advanced register map */
 158:../Libmaple/libmaple/libmaple/timer.h ****     timer_gen_reg_map *gen;     /**< General purpose register map */
 159:../Libmaple/libmaple/libmaple/timer.h ****     timer_bas_reg_map *bas;     /**< Basic register map */
 160:../Libmaple/libmaple/libmaple/timer.h **** } timer_reg_map;
 161:../Libmaple/libmaple/libmaple/timer.h **** 
 162:../Libmaple/libmaple/libmaple/timer.h **** /**
 163:../Libmaple/libmaple/libmaple/timer.h ****  * @brief Timer type
 164:../Libmaple/libmaple/libmaple/timer.h ****  *
 165:../Libmaple/libmaple/libmaple/timer.h ****  * Type marker for timer_dev.
 166:../Libmaple/libmaple/libmaple/timer.h ****  *
 167:../Libmaple/libmaple/libmaple/timer.h ****  * @see timer_dev
 168:../Libmaple/libmaple/libmaple/timer.h ****  */
 169:../Libmaple/libmaple/libmaple/timer.h **** typedef enum timer_type {
 170:../Libmaple/libmaple/libmaple/timer.h ****     TIMER_ADVANCED,             /**< Advanced type */
 171:../Libmaple/libmaple/libmaple/timer.h ****     TIMER_GENERAL,              /**< General purpose type */
 172:../Libmaple/libmaple/libmaple/timer.h ****     TIMER_BASIC                 /**< Basic type */
 173:../Libmaple/libmaple/libmaple/timer.h **** } timer_type;
 174:../Libmaple/libmaple/libmaple/timer.h **** 
 175:../Libmaple/libmaple/libmaple/timer.h **** /** Timer device type */
 176:../Libmaple/libmaple/libmaple/timer.h **** typedef struct timer_dev {
 177:../Libmaple/libmaple/libmaple/timer.h ****     timer_reg_map regs;         /**< Register map */
 178:../Libmaple/libmaple/libmaple/timer.h ****     rcc_clk_id clk_id;          /**< RCC clock information */
 179:../Libmaple/libmaple/libmaple/timer.h ****     timer_type type;            /**< Timer's type */
 180:../Libmaple/libmaple/libmaple/timer.h ****     voidFuncPtr handlers[];     /**< User IRQ handlers */
 181:../Libmaple/libmaple/libmaple/timer.h **** } timer_dev;
 182:../Libmaple/libmaple/libmaple/timer.h **** 
 183:../Libmaple/libmaple/libmaple/timer.h **** extern timer_dev *TIMER1;
 184:../Libmaple/libmaple/libmaple/timer.h **** extern timer_dev *TIMER2;
 185:../Libmaple/libmaple/libmaple/timer.h **** extern timer_dev *TIMER3;
 186:../Libmaple/libmaple/libmaple/timer.h **** extern timer_dev *TIMER4;
 187:../Libmaple/libmaple/libmaple/timer.h **** #ifdef STM32_HIGH_DENSITY
 188:../Libmaple/libmaple/libmaple/timer.h **** extern timer_dev *TIMER5;
 189:../Libmaple/libmaple/libmaple/timer.h **** extern timer_dev *TIMER6;
 190:../Libmaple/libmaple/libmaple/timer.h **** extern timer_dev *TIMER7;
 191:../Libmaple/libmaple/libmaple/timer.h **** extern timer_dev *TIMER8;
 192:../Libmaple/libmaple/libmaple/timer.h **** #endif
 193:../Libmaple/libmaple/libmaple/timer.h **** 
 194:../Libmaple/libmaple/libmaple/timer.h **** /*
 195:../Libmaple/libmaple/libmaple/timer.h ****  * Register bit definitions
 196:../Libmaple/libmaple/libmaple/timer.h ****  */
 197:../Libmaple/libmaple/libmaple/timer.h **** 
 198:../Libmaple/libmaple/libmaple/timer.h **** /* Control register 1 (CR1) */
 199:../Libmaple/libmaple/libmaple/timer.h **** 
 200:../Libmaple/libmaple/libmaple/timer.h **** #define TIMER_CR1_ARPE_BIT              7
 201:../Libmaple/libmaple/libmaple/timer.h **** #define TIMER_CR1_DIR_BIT               4
 202:../Libmaple/libmaple/libmaple/timer.h **** #define TIMER_CR1_OPM_BIT               3
 203:../Libmaple/libmaple/libmaple/timer.h **** #define TIMER_CR1_URS_BIT               2
 204:../Libmaple/libmaple/libmaple/timer.h **** #define TIMER_CR1_UDIS_BIT              1
 205:../Libmaple/libmaple/libmaple/timer.h **** #define TIMER_CR1_CEN_BIT               0
 206:../Libmaple/libmaple/libmaple/timer.h **** 
 207:../Libmaple/libmaple/libmaple/timer.h **** #define TIMER_CR1_CKD                   (0x3 << 8)
 208:../Libmaple/libmaple/libmaple/timer.h **** #define TIMER_CR1_CKD_1TCKINT           (0x0 << 8)
 209:../Libmaple/libmaple/libmaple/timer.h **** #define TIMER_CR1_CKD_2TCKINT           (0x1 << 8)
 210:../Libmaple/libmaple/libmaple/timer.h **** #define TIMER_CR1_CKD_4TICKINT          (0x2 << 8)
 211:../Libmaple/libmaple/libmaple/timer.h **** #define TIMER_CR1_ARPE                  BIT(TIMER_CR1_ARPE_BIT)
 212:../Libmaple/libmaple/libmaple/timer.h **** #define TIMER_CR1_CKD_CMS               (0x3 << 5)
 213:../Libmaple/libmaple/libmaple/timer.h **** #define TIMER_CR1_CKD_CMS_EDGE          (0x0 << 5)
 214:../Libmaple/libmaple/libmaple/timer.h **** #define TIMER_CR1_CKD_CMS_CENTER1       (0x1 << 5)
 215:../Libmaple/libmaple/libmaple/timer.h **** #define TIMER_CR1_CKD_CMS_CENTER2       (0x2 << 5)
 216:../Libmaple/libmaple/libmaple/timer.h **** #define TIMER_CR1_CKD_CMS_CENTER3       (0x3 << 5)
 217:../Libmaple/libmaple/libmaple/timer.h **** #define TIMER_CR1_DIR                   BIT(TIMER_CR1_DIR_BIT)
 218:../Libmaple/libmaple/libmaple/timer.h **** #define TIMER_CR1_OPM                   BIT(TIMER_CR1_OPM_BIT)
 219:../Libmaple/libmaple/libmaple/timer.h **** #define TIMER_CR1_URS                   BIT(TIMER_CR1_URS_BIT)
 220:../Libmaple/libmaple/libmaple/timer.h **** #define TIMER_CR1_UDIS                  BIT(TIMER_CR1_UDIS_BIT)
 221:../Libmaple/libmaple/libmaple/timer.h **** #define TIMER_CR1_CEN                   BIT(TIMER_CR1_CEN_BIT)
 222:../Libmaple/libmaple/libmaple/timer.h **** 
 223:../Libmaple/libmaple/libmaple/timer.h **** /* Control register 2 (CR2) */
 224:../Libmaple/libmaple/libmaple/timer.h **** 
 225:../Libmaple/libmaple/libmaple/timer.h **** #define TIMER_CR2_OIS4_BIT              14
 226:../Libmaple/libmaple/libmaple/timer.h **** #define TIMER_CR2_OIS3N_BIT             13
 227:../Libmaple/libmaple/libmaple/timer.h **** #define TIMER_CR2_OIS3_BIT              12
 228:../Libmaple/libmaple/libmaple/timer.h **** #define TIMER_CR2_OIS2N_BIT             11
 229:../Libmaple/libmaple/libmaple/timer.h **** #define TIMER_CR2_OIS2_BIT              10
 230:../Libmaple/libmaple/libmaple/timer.h **** #define TIMER_CR2_OIS1N_BIT             9
 231:../Libmaple/libmaple/libmaple/timer.h **** #define TIMER_CR2_OIS1_BIT              8
 232:../Libmaple/libmaple/libmaple/timer.h **** #define TIMER_CR2_TI1S_BIT              7 /* tills? yikes */
 233:../Libmaple/libmaple/libmaple/timer.h **** #define TIMER_CR2_CCDS_BIT              3
 234:../Libmaple/libmaple/libmaple/timer.h **** #define TIMER_CR2_CCUS_BIT              2
 235:../Libmaple/libmaple/libmaple/timer.h **** #define TIMER_CR2_CCPC_BIT              0
 236:../Libmaple/libmaple/libmaple/timer.h **** 
 237:../Libmaple/libmaple/libmaple/timer.h **** #define TIMER_CR2_OIS4                  BIT(TIMER_CR2_OIS4_BIT)
 238:../Libmaple/libmaple/libmaple/timer.h **** #define TIMER_CR2_OIS3N                 BIT(TIMER_CR2_OIS3N_BIT)
 239:../Libmaple/libmaple/libmaple/timer.h **** #define TIMER_CR2_OIS3                  BIT(TIMER_CR2_OIS3_BIT)
 240:../Libmaple/libmaple/libmaple/timer.h **** #define TIMER_CR2_OIS2N                 BIT(TIMER_CR2_OIS2N_BIT)
 241:../Libmaple/libmaple/libmaple/timer.h **** #define TIMER_CR2_OIS2                  BIT(TIMER_CR2_OIS2_BIT)
 242:../Libmaple/libmaple/libmaple/timer.h **** #define TIMER_CR2_OIS1N                 BIT(TIMER_CR2_OIS1N_BIT)
 243:../Libmaple/libmaple/libmaple/timer.h **** #define TIMER_CR2_OIS1                  BIT(TIMER_CR2_OIS1_BIT)
 244:../Libmaple/libmaple/libmaple/timer.h **** #define TIMER_CR2_TI1S                  BIT(TIMER_CR2_TI1S_BIT)
 245:../Libmaple/libmaple/libmaple/timer.h **** #define TIMER_CR2_MMS                   (0x7 << 4)
 246:../Libmaple/libmaple/libmaple/timer.h **** #define TIMER_CR2_MMS_RESET             (0x0 << 4)
 247:../Libmaple/libmaple/libmaple/timer.h **** #define TIMER_CR2_MMS_ENABLE            (0x1 << 4)
 248:../Libmaple/libmaple/libmaple/timer.h **** #define TIMER_CR2_MMS_UPDATE            (0x2 << 4)
 249:../Libmaple/libmaple/libmaple/timer.h **** #define TIMER_CR2_MMS_COMPARE_PULSE     (0x3 << 4)
 250:../Libmaple/libmaple/libmaple/timer.h **** #define TIMER_CR2_MMS_COMPARE_OC1REF    (0x4 << 4)
 251:../Libmaple/libmaple/libmaple/timer.h **** #define TIMER_CR2_MMS_COMPARE_OC2REF    (0x5 << 4)
 252:../Libmaple/libmaple/libmaple/timer.h **** #define TIMER_CR2_MMS_COMPARE_OC3REF    (0x6 << 4)
 253:../Libmaple/libmaple/libmaple/timer.h **** #define TIMER_CR2_MMS_COMPARE_OC4REF    (0x7 << 4)
 254:../Libmaple/libmaple/libmaple/timer.h **** #define TIMER_CR2_CCDS                  BIT(TIMER_CR2_CCDS_BIT)
 255:../Libmaple/libmaple/libmaple/timer.h **** #define TIMER_CR2_CCUS                  BIT(TIMER_CR2_CCUS_BIT)
 256:../Libmaple/libmaple/libmaple/timer.h **** #define TIMER_CR2_CCPC                  BIT(TIMER_CR2_CCPC_BIT)
 257:../Libmaple/libmaple/libmaple/timer.h **** 
 258:../Libmaple/libmaple/libmaple/timer.h **** /* Slave mode control register (SMCR) */
 259:../Libmaple/libmaple/libmaple/timer.h **** 
 260:../Libmaple/libmaple/libmaple/timer.h **** #define TIMER_SMCR_ETP_BIT              15
 261:../Libmaple/libmaple/libmaple/timer.h **** #define TIMER_SMCR_ECE_BIT              14
 262:../Libmaple/libmaple/libmaple/timer.h **** #define TIMER_SMCR_MSM_BIT              7
 263:../Libmaple/libmaple/libmaple/timer.h **** 
 264:../Libmaple/libmaple/libmaple/timer.h **** #define TIMER_SMCR_ETP                  BIT(TIMER_SMCR_ETP_BIT)
 265:../Libmaple/libmaple/libmaple/timer.h **** #define TIMER_SMCR_ECE                  BIT(TIMER_SMCR_ECE_BIT)
 266:../Libmaple/libmaple/libmaple/timer.h **** #define TIMER_SMCR_ETPS                 (0x3 << 12)
 267:../Libmaple/libmaple/libmaple/timer.h **** #define TIMER_SMCR_ETPS_OFF             (0x0 << 12)
 268:../Libmaple/libmaple/libmaple/timer.h **** #define TIMER_SMCR_ETPS_DIV2            (0x1 << 12)
 269:../Libmaple/libmaple/libmaple/timer.h **** #define TIMER_SMCR_ETPS_DIV4            (0x2 << 12)
 270:../Libmaple/libmaple/libmaple/timer.h **** #define TIMER_SMCR_ETPS_DIV8            (0x3 << 12)
 271:../Libmaple/libmaple/libmaple/timer.h **** #define TIMER_SMCR_ETF                  (0xF << 12)
 272:../Libmaple/libmaple/libmaple/timer.h **** #define TIMER_SMCR_MSM                  BIT(TIMER_SMCR_MSM_BIT)
 273:../Libmaple/libmaple/libmaple/timer.h **** #define TIMER_SMCR_TS                   (0x3 << 4)
 274:../Libmaple/libmaple/libmaple/timer.h **** #define TIMER_SMCR_TS_ITR0              (0x0 << 4)
 275:../Libmaple/libmaple/libmaple/timer.h **** #define TIMER_SMCR_TS_ITR1              (0x1 << 4)
 276:../Libmaple/libmaple/libmaple/timer.h **** #define TIMER_SMCR_TS_ITR2              (0x2 << 4)
 277:../Libmaple/libmaple/libmaple/timer.h **** #define TIMER_SMCR_TS_ITR3              (0x3 << 4)
 278:../Libmaple/libmaple/libmaple/timer.h **** #define TIMER_SMCR_TS_TI1F_ED           (0x4 << 4)
 279:../Libmaple/libmaple/libmaple/timer.h **** #define TIMER_SMCR_TS_TI1FP1            (0x5 << 4)
 280:../Libmaple/libmaple/libmaple/timer.h **** #define TIMER_SMCR_TS_TI2FP2            (0x6 << 4)
 281:../Libmaple/libmaple/libmaple/timer.h **** #define TIMER_SMCR_TS_ETRF              (0x7 << 4)
 282:../Libmaple/libmaple/libmaple/timer.h **** #define TIMER_SMCR_SMS                  0x3
 283:../Libmaple/libmaple/libmaple/timer.h **** #define TIMER_SMCR_SMS_DISABLED         0x0
 284:../Libmaple/libmaple/libmaple/timer.h **** #define TIMER_SMCR_SMS_ENCODER1         0x1
 285:../Libmaple/libmaple/libmaple/timer.h **** #define TIMER_SMCR_SMS_ENCODER2         0x2
 286:../Libmaple/libmaple/libmaple/timer.h **** #define TIMER_SMCR_SMS_ENCODER3         0x3
 287:../Libmaple/libmaple/libmaple/timer.h **** #define TIMER_SMCR_SMS_RESET            0x4
 288:../Libmaple/libmaple/libmaple/timer.h **** #define TIMER_SMCR_SMS_GATED            0x5
 289:../Libmaple/libmaple/libmaple/timer.h **** #define TIMER_SMCR_SMS_TRIGGER          0x6
 290:../Libmaple/libmaple/libmaple/timer.h **** #define TIMER_SMCR_SMS_EXTERNAL         0x7
 291:../Libmaple/libmaple/libmaple/timer.h **** 
 292:../Libmaple/libmaple/libmaple/timer.h **** /* DMA/Interrupt enable register (DIER) */
 293:../Libmaple/libmaple/libmaple/timer.h **** 
 294:../Libmaple/libmaple/libmaple/timer.h **** #define TIMER_DIER_TDE_BIT              14
 295:../Libmaple/libmaple/libmaple/timer.h **** #define TIMER_DIER_CC4DE_BIT            12
 296:../Libmaple/libmaple/libmaple/timer.h **** #define TIMER_DIER_CC3DE_BIT            11
 297:../Libmaple/libmaple/libmaple/timer.h **** #define TIMER_DIER_CC2DE_BIT            10
 298:../Libmaple/libmaple/libmaple/timer.h **** #define TIMER_DIER_CC1DE_BIT            9
 299:../Libmaple/libmaple/libmaple/timer.h **** #define TIMER_DIER_UDE_BIT              8
 300:../Libmaple/libmaple/libmaple/timer.h **** #define TIMER_DIER_TIE_BIT              6
 301:../Libmaple/libmaple/libmaple/timer.h **** #define TIMER_DIER_CC4IE_BIT            4
 302:../Libmaple/libmaple/libmaple/timer.h **** #define TIMER_DIER_CC3IE_BIT            3
 303:../Libmaple/libmaple/libmaple/timer.h **** #define TIMER_DIER_CC2IE_BIT            2
 304:../Libmaple/libmaple/libmaple/timer.h **** #define TIMER_DIER_CC1IE_BIT            1
 305:../Libmaple/libmaple/libmaple/timer.h **** #define TIMER_DIER_UIE_BIT              0
 306:../Libmaple/libmaple/libmaple/timer.h **** 
 307:../Libmaple/libmaple/libmaple/timer.h **** #define TIMER_DIER_TDE                  BIT(TIMER_DIER_TDE_BIT)
 308:../Libmaple/libmaple/libmaple/timer.h **** #define TIMER_DIER_CC4DE                BIT(TIMER_DIER_CC4DE_BIT)
 309:../Libmaple/libmaple/libmaple/timer.h **** #define TIMER_DIER_CC3DE                BIT(TIMER_DIER_CC3DE_BIT)
 310:../Libmaple/libmaple/libmaple/timer.h **** #define TIMER_DIER_CC2DE                BIT(TIMER_DIER_CC2DE_BIT)
 311:../Libmaple/libmaple/libmaple/timer.h **** #define TIMER_DIER_CC1DE                BIT(TIMER_DIER_CC1DE_BIT)
 312:../Libmaple/libmaple/libmaple/timer.h **** #define TIMER_DIER_UDE                  BIT(TIMER_DIER_UDE_BIT)
 313:../Libmaple/libmaple/libmaple/timer.h **** #define TIMER_DIER_TIE                  BIT(TIMER_DIER_TIE_BIT)
 314:../Libmaple/libmaple/libmaple/timer.h **** #define TIMER_DIER_CC4IE                BIT(TIMER_DIER_CC4IE_BIT)
 315:../Libmaple/libmaple/libmaple/timer.h **** #define TIMER_DIER_CC3IE                BIT(TIMER_DIER_CC3IE_BIT)
 316:../Libmaple/libmaple/libmaple/timer.h **** #define TIMER_DIER_CC2IE                BIT(TIMER_DIER_CC2IE_BIT)
 317:../Libmaple/libmaple/libmaple/timer.h **** #define TIMER_DIER_CC1IE                BIT(TIMER_DIER_CC1IE_BIT)
 318:../Libmaple/libmaple/libmaple/timer.h **** #define TIMER_DIER_UIE                  BIT(TIMER_DIER_UIE_BIT)
 319:../Libmaple/libmaple/libmaple/timer.h **** 
 320:../Libmaple/libmaple/libmaple/timer.h **** /* Status register (SR) */
 321:../Libmaple/libmaple/libmaple/timer.h **** 
 322:../Libmaple/libmaple/libmaple/timer.h **** #define TIMER_SR_CC4OF_BIT              12
 323:../Libmaple/libmaple/libmaple/timer.h **** #define TIMER_SR_CC3OF_BIT              11
 324:../Libmaple/libmaple/libmaple/timer.h **** #define TIMER_SR_CC2OF_BIT              10
 325:../Libmaple/libmaple/libmaple/timer.h **** #define TIMER_SR_CC1OF_BIT              9
 326:../Libmaple/libmaple/libmaple/timer.h **** #define TIMER_SR_BIF_BIT                7
 327:../Libmaple/libmaple/libmaple/timer.h **** #define TIMER_SR_TIF_BIT                6
 328:../Libmaple/libmaple/libmaple/timer.h **** #define TIMER_SR_COMIF_BIT              5
 329:../Libmaple/libmaple/libmaple/timer.h **** #define TIMER_SR_CC4IF_BIT              4
 330:../Libmaple/libmaple/libmaple/timer.h **** #define TIMER_SR_CC3IF_BIT              3
 331:../Libmaple/libmaple/libmaple/timer.h **** #define TIMER_SR_CC2IF_BIT              2
 332:../Libmaple/libmaple/libmaple/timer.h **** #define TIMER_SR_CC1IF_BIT              1
 333:../Libmaple/libmaple/libmaple/timer.h **** #define TIMER_SR_UIF_BIT                0
 334:../Libmaple/libmaple/libmaple/timer.h **** 
 335:../Libmaple/libmaple/libmaple/timer.h **** #define TIMER_SR_CC4OF                  BIT(TIMER_SR_CC4OF_BIT)
 336:../Libmaple/libmaple/libmaple/timer.h **** #define TIMER_SR_CC3OF                  BIT(TIMER_SR_CC3OF_BIT)
 337:../Libmaple/libmaple/libmaple/timer.h **** #define TIMER_SR_CC2OF                  BIT(TIMER_SR_CC2OF_BIT)
 338:../Libmaple/libmaple/libmaple/timer.h **** #define TIMER_SR_CC1OF                  BIT(TIMER_SR_CC1OF_BIT)
 339:../Libmaple/libmaple/libmaple/timer.h **** #define TIMER_SR_BIF                    BIT(TIMER_SR_BIF_BIT)
 340:../Libmaple/libmaple/libmaple/timer.h **** #define TIMER_SR_TIF                    BIT(TIMER_SR_TIF_BIT)
 341:../Libmaple/libmaple/libmaple/timer.h **** #define TIMER_SR_COMIF                  BIT(TIMER_SR_COMIF_BIT)
 342:../Libmaple/libmaple/libmaple/timer.h **** #define TIMER_SR_CC4IF                  BIT(TIMER_SR_CC4IF_BIT)
 343:../Libmaple/libmaple/libmaple/timer.h **** #define TIMER_SR_CC3IF                  BIT(TIMER_SR_CC3IF_BIT)
 344:../Libmaple/libmaple/libmaple/timer.h **** #define TIMER_SR_CC2IF                  BIT(TIMER_SR_CC2IF_BIT)
 345:../Libmaple/libmaple/libmaple/timer.h **** #define TIMER_SR_CC1IF                  BIT(TIMER_SR_CC1IF_BIT)
 346:../Libmaple/libmaple/libmaple/timer.h **** #define TIMER_SR_UIF                    BIT(TIMER_SR_UIF_BIT)
 347:../Libmaple/libmaple/libmaple/timer.h **** 
 348:../Libmaple/libmaple/libmaple/timer.h **** /* Event generation register (EGR) */
 349:../Libmaple/libmaple/libmaple/timer.h **** 
 350:../Libmaple/libmaple/libmaple/timer.h **** #define TIMER_EGR_TG_BIT                6
 351:../Libmaple/libmaple/libmaple/timer.h **** #define TIMER_EGR_CC4G_BIT              4
 352:../Libmaple/libmaple/libmaple/timer.h **** #define TIMER_EGR_CC3G_BIT              3
 353:../Libmaple/libmaple/libmaple/timer.h **** #define TIMER_EGR_CC2G_BIT              2
 354:../Libmaple/libmaple/libmaple/timer.h **** #define TIMER_EGR_CC1G_BIT              1
 355:../Libmaple/libmaple/libmaple/timer.h **** #define TIMER_EGR_UG_BIT                0
 356:../Libmaple/libmaple/libmaple/timer.h **** 
 357:../Libmaple/libmaple/libmaple/timer.h **** #define TIMER_EGR_TG                    BIT(TIMER_EGR_TG_BIT)
 358:../Libmaple/libmaple/libmaple/timer.h **** #define TIMER_EGR_CC4G                  BIT(TIMER_EGR_CC4G_BIT)
 359:../Libmaple/libmaple/libmaple/timer.h **** #define TIMER_EGR_CC3G                  BIT(TIMER_EGR_CC3G_BIT)
 360:../Libmaple/libmaple/libmaple/timer.h **** #define TIMER_EGR_CC2G                  BIT(TIMER_EGR_CC2G_BIT)
 361:../Libmaple/libmaple/libmaple/timer.h **** #define TIMER_EGR_CC1G                  BIT(TIMER_EGR_CC1G_BIT)
 362:../Libmaple/libmaple/libmaple/timer.h **** #define TIMER_EGR_UG                    BIT(TIMER_EGR_UG_BIT)
 363:../Libmaple/libmaple/libmaple/timer.h **** 
 364:../Libmaple/libmaple/libmaple/timer.h **** /* Capture/compare mode registers, common values */
 365:../Libmaple/libmaple/libmaple/timer.h **** 
 366:../Libmaple/libmaple/libmaple/timer.h **** #define TIMER_CCMR_CCS_OUTPUT           0x0
 367:../Libmaple/libmaple/libmaple/timer.h **** #define TIMER_CCMR_CCS_INPUT_TI1        0x1
 368:../Libmaple/libmaple/libmaple/timer.h **** #define TIMER_CCMR_CCS_INPUT_TI2        0x2
 369:../Libmaple/libmaple/libmaple/timer.h **** #define TIMER_CCMR_CCS_INPUT_TRC        0x3
 370:../Libmaple/libmaple/libmaple/timer.h **** 
 371:../Libmaple/libmaple/libmaple/timer.h **** /* Capture/compare mode register 1 (CCMR1) */
 372:../Libmaple/libmaple/libmaple/timer.h **** 
 373:../Libmaple/libmaple/libmaple/timer.h **** #define TIMER_CCMR1_OC2CE_BIT           15
 374:../Libmaple/libmaple/libmaple/timer.h **** #define TIMER_CCMR1_OC2PE_BIT           11
 375:../Libmaple/libmaple/libmaple/timer.h **** #define TIMER_CCMR1_OC2FE_BIT           10
 376:../Libmaple/libmaple/libmaple/timer.h **** #define TIMER_CCMR1_OC1CE_BIT           7
 377:../Libmaple/libmaple/libmaple/timer.h **** #define TIMER_CCMR1_OC1PE_BIT           3
 378:../Libmaple/libmaple/libmaple/timer.h **** #define TIMER_CCMR1_OC1FE_BIT           2
 379:../Libmaple/libmaple/libmaple/timer.h **** 
 380:../Libmaple/libmaple/libmaple/timer.h **** #define TIMER_CCMR1_OC2CE               BIT(TIMER_CCMR1_OC2CE_BIT)
 381:../Libmaple/libmaple/libmaple/timer.h **** #define TIMER_CCMR1_OC2M                (0x3 << 12)
 382:../Libmaple/libmaple/libmaple/timer.h **** #define TIMER_CCMR1_IC2F                (0xF << 12)
 383:../Libmaple/libmaple/libmaple/timer.h **** #define TIMER_CCMR1_OC2PE               BIT(TIMER_CCMR1_OC2PE_BIT)
 384:../Libmaple/libmaple/libmaple/timer.h **** #define TIMER_CCMR1_OC2FE               BIT(TIMER_CCMR1_OC2FE_BIT)
 385:../Libmaple/libmaple/libmaple/timer.h **** #define TIMER_CCMR1_IC2PSC              (0x3 << 10)
 386:../Libmaple/libmaple/libmaple/timer.h **** #define TIMER_CCMR1_CC2S                (0x3 << 8)
 387:../Libmaple/libmaple/libmaple/timer.h **** #define TIMER_CCMR1_CC2S_OUTPUT         (TIMER_CCMR_CCS_OUTPUT << 8)
 388:../Libmaple/libmaple/libmaple/timer.h **** #define TIMER_CCMR1_CC2S_INPUT_TI1      (TIMER_CCMR_CCS_INPUT_TI1 << 8)
 389:../Libmaple/libmaple/libmaple/timer.h **** #define TIMER_CCMR1_CC2S_INPUT_TI2      (TIMER_CCMR_CCS_INPUT_TI2 << 8)
 390:../Libmaple/libmaple/libmaple/timer.h **** #define TIMER_CCMR1_CC2S_INPUT_TRC      (TIMER_CCMR_CCS_INPUT_TRC << 8)
 391:../Libmaple/libmaple/libmaple/timer.h **** #define TIMER_CCMR1_OC1CE               BIT(TIMER_CCMR1_OC1CE_BIT)
 392:../Libmaple/libmaple/libmaple/timer.h **** #define TIMER_CCMR1_OC1M                (0x3 << 4)
 393:../Libmaple/libmaple/libmaple/timer.h **** #define TIMER_CCMR1_IC1F                (0xF << 4)
 394:../Libmaple/libmaple/libmaple/timer.h **** #define TIMER_CCMR1_OC1PE               BIT(TIMER_CCMR1_OC1PE_BIT)
 395:../Libmaple/libmaple/libmaple/timer.h **** #define TIMER_CCMR1_OC1FE               BIT(TIMER_CCMR1_OC1FE_BIT)
 396:../Libmaple/libmaple/libmaple/timer.h **** #define TIMER_CCMR1_IC1PSC              (0x3 << 2)
 397:../Libmaple/libmaple/libmaple/timer.h **** #define TIMER_CCMR1_CC1S                0x3
 398:../Libmaple/libmaple/libmaple/timer.h **** #define TIMER_CCMR1_CC1S_OUTPUT         TIMER_CCMR_CCS_OUTPUT
 399:../Libmaple/libmaple/libmaple/timer.h **** #define TIMER_CCMR1_CC1S_INPUT_TI1      TIMER_CCMR_CCS_INPUT_TI1
 400:../Libmaple/libmaple/libmaple/timer.h **** #define TIMER_CCMR1_CC1S_INPUT_TI2      TIMER_CCMR_CCS_INPUT_TI2
 401:../Libmaple/libmaple/libmaple/timer.h **** #define TIMER_CCMR1_CC1S_INPUT_TRC      TIMER_CCMR_CCS_INPUT_TRC
 402:../Libmaple/libmaple/libmaple/timer.h **** 
 403:../Libmaple/libmaple/libmaple/timer.h **** /* Capture/compare mode register 2 (CCMR2) */
 404:../Libmaple/libmaple/libmaple/timer.h **** 
 405:../Libmaple/libmaple/libmaple/timer.h **** #define TIMER_CCMR2_OC4CE_BIT           15
 406:../Libmaple/libmaple/libmaple/timer.h **** #define TIMER_CCMR2_OC4PE_BIT           11
 407:../Libmaple/libmaple/libmaple/timer.h **** #define TIMER_CCMR2_OC4FE_BIT           10
 408:../Libmaple/libmaple/libmaple/timer.h **** #define TIMER_CCMR2_OC3CE_BIT           7
 409:../Libmaple/libmaple/libmaple/timer.h **** #define TIMER_CCMR2_OC3PE_BIT           3
 410:../Libmaple/libmaple/libmaple/timer.h **** #define TIMER_CCMR2_OC3FE_BIT           2
 411:../Libmaple/libmaple/libmaple/timer.h **** 
 412:../Libmaple/libmaple/libmaple/timer.h **** #define TIMER_CCMR2_OC4CE               BIT(TIMER_CCMR2_OC4CE_BIT)
 413:../Libmaple/libmaple/libmaple/timer.h **** #define TIMER_CCMR2_OC4M                (0x3 << 12)
 414:../Libmaple/libmaple/libmaple/timer.h **** #define TIMER_CCMR2_IC2F                (0xF << 12)
 415:../Libmaple/libmaple/libmaple/timer.h **** #define TIMER_CCMR2_OC4PE               BIT(TIMER_CCMR2_OC4PE_BIT)
 416:../Libmaple/libmaple/libmaple/timer.h **** #define TIMER_CCMR2_OC4FE               BIT(TIMER_CCMR2_OC4FE_BIT)
 417:../Libmaple/libmaple/libmaple/timer.h **** #define TIMER_CCMR2_IC2PSC              (0x3 << 10)
 418:../Libmaple/libmaple/libmaple/timer.h **** #define TIMER_CCMR2_CC4S                (0x3 << 8)
 419:../Libmaple/libmaple/libmaple/timer.h **** #define TIMER_CCMR1_CC4S_OUTPUT         (TIMER_CCMR_CCS_OUTPUT << 8)
 420:../Libmaple/libmaple/libmaple/timer.h **** #define TIMER_CCMR1_CC4S_INPUT_TI1      (TIMER_CCMR_CCS_INPUT_TI1 << 8)
 421:../Libmaple/libmaple/libmaple/timer.h **** #define TIMER_CCMR1_CC4S_INPUT_TI2      (TIMER_CCMR_CCS_INPUT_TI2 << 8)
 422:../Libmaple/libmaple/libmaple/timer.h **** #define TIMER_CCMR1_CC4S_INPUT_TRC      (TIMER_CCMR_CCS_INPUT_TRC << 8)
 423:../Libmaple/libmaple/libmaple/timer.h **** #define TIMER_CCMR2_OC3CE               BIT(TIMER_CCMR2_OC3CE_BIT)
 424:../Libmaple/libmaple/libmaple/timer.h **** #define TIMER_CCMR2_OC3M                (0x3 << 4)
 425:../Libmaple/libmaple/libmaple/timer.h **** #define TIMER_CCMR2_IC1F                (0xF << 4)
 426:../Libmaple/libmaple/libmaple/timer.h **** #define TIMER_CCMR2_OC3PE               BIT(TIMER_CCMR2_OC3PE_BIT)
 427:../Libmaple/libmaple/libmaple/timer.h **** #define TIMER_CCMR2_OC3FE               BIT(TIMER_CCMR2_OC3FE_BIT)
 428:../Libmaple/libmaple/libmaple/timer.h **** #define TIMER_CCMR2_IC1PSC              (0x3 << 2)
 429:../Libmaple/libmaple/libmaple/timer.h **** #define TIMER_CCMR2_CC3S                0x3
 430:../Libmaple/libmaple/libmaple/timer.h **** #define TIMER_CCMR1_CC3S_OUTPUT         TIMER_CCMR_CCS_OUTPUT
 431:../Libmaple/libmaple/libmaple/timer.h **** #define TIMER_CCMR1_CC3S_INPUT_TI1      TIMER_CCMR_CCS_INPUT_TI1
 432:../Libmaple/libmaple/libmaple/timer.h **** #define TIMER_CCMR1_CC3S_INPUT_TI2      TIMER_CCMR_CCS_INPUT_TI2
 433:../Libmaple/libmaple/libmaple/timer.h **** #define TIMER_CCMR1_CC3S_INPUT_TRC      TIMER_CCMR_CCS_INPUT_TRC
 434:../Libmaple/libmaple/libmaple/timer.h **** 
 435:../Libmaple/libmaple/libmaple/timer.h **** /* Capture/compare enable register (CCER) */
 436:../Libmaple/libmaple/libmaple/timer.h **** 
 437:../Libmaple/libmaple/libmaple/timer.h **** #define TIMER_CCER_CC4P_BIT             13
 438:../Libmaple/libmaple/libmaple/timer.h **** #define TIMER_CCER_CC4E_BIT             12
 439:../Libmaple/libmaple/libmaple/timer.h **** #define TIMER_CCER_CC3P_BIT             9
 440:../Libmaple/libmaple/libmaple/timer.h **** #define TIMER_CCER_CC3E_BIT             8
 441:../Libmaple/libmaple/libmaple/timer.h **** #define TIMER_CCER_CC2P_BIT             5
 442:../Libmaple/libmaple/libmaple/timer.h **** #define TIMER_CCER_CC2E_BIT             4
 443:../Libmaple/libmaple/libmaple/timer.h **** #define TIMER_CCER_CC1P_BIT             1
 444:../Libmaple/libmaple/libmaple/timer.h **** #define TIMER_CCER_CC1E_BIT             0
 445:../Libmaple/libmaple/libmaple/timer.h **** 
 446:../Libmaple/libmaple/libmaple/timer.h **** #define TIMER_CCER_CC4P                 BIT(TIMER_CCER_CC4P_BIT)
 447:../Libmaple/libmaple/libmaple/timer.h **** #define TIMER_CCER_CC4E                 BIT(TIMER_CCER_CC4E_BIT)
 448:../Libmaple/libmaple/libmaple/timer.h **** #define TIMER_CCER_CC3P                 BIT(TIMER_CCER_CC3P_BIT)
 449:../Libmaple/libmaple/libmaple/timer.h **** #define TIMER_CCER_CC3E                 BIT(TIMER_CCER_CC3E_BIT)
 450:../Libmaple/libmaple/libmaple/timer.h **** #define TIMER_CCER_CC2P                 BIT(TIMER_CCER_CC2P_BIT)
 451:../Libmaple/libmaple/libmaple/timer.h **** #define TIMER_CCER_CC2E                 BIT(TIMER_CCER_CC2E_BIT)
 452:../Libmaple/libmaple/libmaple/timer.h **** #define TIMER_CCER_CC1P                 BIT(TIMER_CCER_CC1P_BIT)
 453:../Libmaple/libmaple/libmaple/timer.h **** #define TIMER_CCER_CC1E                 BIT(TIMER_CCER_CC1E_BIT)
 454:../Libmaple/libmaple/libmaple/timer.h **** 
 455:../Libmaple/libmaple/libmaple/timer.h **** /* Break and dead-time register (BDTR) */
 456:../Libmaple/libmaple/libmaple/timer.h **** 
 457:../Libmaple/libmaple/libmaple/timer.h **** #define TIMER_BDTR_MOE_BIT              15
 458:../Libmaple/libmaple/libmaple/timer.h **** #define TIMER_BDTR_AOE_BIT              14
 459:../Libmaple/libmaple/libmaple/timer.h **** #define TIMER_BDTR_BKP_BIT              13
 460:../Libmaple/libmaple/libmaple/timer.h **** #define TIMER_BDTR_BKE_BIT              12
 461:../Libmaple/libmaple/libmaple/timer.h **** #define TIMER_BDTR_OSSR_BIT             11
 462:../Libmaple/libmaple/libmaple/timer.h **** #define TIMER_BDTR_OSSI_BIT             10
 463:../Libmaple/libmaple/libmaple/timer.h **** 
 464:../Libmaple/libmaple/libmaple/timer.h **** #define TIMER_BDTR_MOE                  BIT(TIMER_BDTR_MOE_BIT)
 465:../Libmaple/libmaple/libmaple/timer.h **** #define TIMER_BDTR_AOE                  BIT(TIMER_BDTR_AOE_BIT)
 466:../Libmaple/libmaple/libmaple/timer.h **** #define TIMER_BDTR_BKP                  BIT(TIMER_BDTR_BKP_BIT)
 467:../Libmaple/libmaple/libmaple/timer.h **** #define TIMER_BDTR_BKE                  BIT(TIMER_BDTR_BKE_BIT)
 468:../Libmaple/libmaple/libmaple/timer.h **** #define TIMER_BDTR_OSSR                 BIT(TIMER_BDTR_OSSR_BIT)
 469:../Libmaple/libmaple/libmaple/timer.h **** #define TIMER_BDTR_OSSI                 BIT(TIMER_BDTR_OSSI_BIT)
 470:../Libmaple/libmaple/libmaple/timer.h **** #define TIMER_BDTR_LOCK                 (0x3 << 8)
 471:../Libmaple/libmaple/libmaple/timer.h **** #define TIMER_BDTR_LOCK_OFF             (0x0 << 8)
 472:../Libmaple/libmaple/libmaple/timer.h **** #define TIMER_BDTR_LOCK_LEVEL1          (0x1 << 8)
 473:../Libmaple/libmaple/libmaple/timer.h **** #define TIMER_BDTR_LOCK_LEVEL2          (0x2 << 8)
 474:../Libmaple/libmaple/libmaple/timer.h **** #define TIMER_BDTR_LOCK_LEVEL3          (0x3 << 8)
 475:../Libmaple/libmaple/libmaple/timer.h **** #define TIMER_BDTR_DTG                  0xFF
 476:../Libmaple/libmaple/libmaple/timer.h **** 
 477:../Libmaple/libmaple/libmaple/timer.h **** /* DMA control register (DCR) */
 478:../Libmaple/libmaple/libmaple/timer.h **** 
 479:../Libmaple/libmaple/libmaple/timer.h **** #define TIMER_DCR_DBL                   (0x1F << 8)
 480:../Libmaple/libmaple/libmaple/timer.h **** #define TIMER_DCR_DBL_1BYTE             (0x0 << 8)
 481:../Libmaple/libmaple/libmaple/timer.h **** #define TIMER_DCR_DBL_2BYTE             (0x1 << 8)
 482:../Libmaple/libmaple/libmaple/timer.h **** #define TIMER_DCR_DBL_3BYTE             (0x2 << 8)
 483:../Libmaple/libmaple/libmaple/timer.h **** #define TIMER_DCR_DBL_4BYTE             (0x3 << 8)
 484:../Libmaple/libmaple/libmaple/timer.h **** #define TIMER_DCR_DBL_5BYTE             (0x4 << 8)
 485:../Libmaple/libmaple/libmaple/timer.h **** #define TIMER_DCR_DBL_6BYTE             (0x5 << 8)
 486:../Libmaple/libmaple/libmaple/timer.h **** #define TIMER_DCR_DBL_7BYTE             (0x6 << 8)
 487:../Libmaple/libmaple/libmaple/timer.h **** #define TIMER_DCR_DBL_8BYTE             (0x7 << 8)
 488:../Libmaple/libmaple/libmaple/timer.h **** #define TIMER_DCR_DBL_9BYTE             (0x8 << 8)
 489:../Libmaple/libmaple/libmaple/timer.h **** #define TIMER_DCR_DBL_10BYTE            (0x9 << 8)
 490:../Libmaple/libmaple/libmaple/timer.h **** #define TIMER_DCR_DBL_11BYTE            (0xA << 8)
 491:../Libmaple/libmaple/libmaple/timer.h **** #define TIMER_DCR_DBL_12BYTE            (0xB << 8)
 492:../Libmaple/libmaple/libmaple/timer.h **** #define TIMER_DCR_DBL_13BYTE            (0xC << 8)
 493:../Libmaple/libmaple/libmaple/timer.h **** #define TIMER_DCR_DBL_14BYTE            (0xD << 8)
 494:../Libmaple/libmaple/libmaple/timer.h **** #define TIMER_DCR_DBL_15BYTE            (0xE << 8)
 495:../Libmaple/libmaple/libmaple/timer.h **** #define TIMER_DCR_DBL_16BYTE            (0xF << 8)
 496:../Libmaple/libmaple/libmaple/timer.h **** #define TIMER_DCR_DBL_17BYTE            (0x10 << 8)
 497:../Libmaple/libmaple/libmaple/timer.h **** #define TIMER_DCR_DBL_18BYTE            (0x11 << 8)
 498:../Libmaple/libmaple/libmaple/timer.h **** #define TIMER_DCR_DBA                   0x1F
 499:../Libmaple/libmaple/libmaple/timer.h **** #define TIMER_DCR_DBA_CR1               0x0
 500:../Libmaple/libmaple/libmaple/timer.h **** #define TIMER_DCR_DBA_CR2               0x1
 501:../Libmaple/libmaple/libmaple/timer.h **** #define TIMER_DCR_DBA_SMCR              0x2
 502:../Libmaple/libmaple/libmaple/timer.h **** #define TIMER_DCR_DBA_DIER              0x3
 503:../Libmaple/libmaple/libmaple/timer.h **** #define TIMER_DCR_DBA_SR                0x4
 504:../Libmaple/libmaple/libmaple/timer.h **** #define TIMER_DCR_DBA_EGR               0x5
 505:../Libmaple/libmaple/libmaple/timer.h **** #define TIMER_DCR_DBA_CCMR1             0x6
 506:../Libmaple/libmaple/libmaple/timer.h **** #define TIMER_DCR_DBA_CCMR2             0x7
 507:../Libmaple/libmaple/libmaple/timer.h **** #define TIMER_DCR_DBA_CCER              0x8
 508:../Libmaple/libmaple/libmaple/timer.h **** #define TIMER_DCR_DBA_CNT               0x9
 509:../Libmaple/libmaple/libmaple/timer.h **** #define TIMER_DCR_DBA_PSC               0xA
 510:../Libmaple/libmaple/libmaple/timer.h **** #define TIMER_DCR_DBA_ARR               0xB
 511:../Libmaple/libmaple/libmaple/timer.h **** #define TIMER_DCR_DBA_RCR               0xC
 512:../Libmaple/libmaple/libmaple/timer.h **** #define TIMER_DCR_DBA_CCR1              0xD
 513:../Libmaple/libmaple/libmaple/timer.h **** #define TIMER_DCR_DBA_CCR2              0xE
 514:../Libmaple/libmaple/libmaple/timer.h **** #define TIMER_DCR_DBA_CCR3              0xF
 515:../Libmaple/libmaple/libmaple/timer.h **** #define TIMER_DCR_DBA_CCR4              0x10
 516:../Libmaple/libmaple/libmaple/timer.h **** #define TIMER_DCR_DBA_BDTR              0x11
 517:../Libmaple/libmaple/libmaple/timer.h **** #define TIMER_DCR_DBA_DCR               0x12
 518:../Libmaple/libmaple/libmaple/timer.h **** #define TIMER_DCR_DBA_DMAR              0x13
 519:../Libmaple/libmaple/libmaple/timer.h **** 
 520:../Libmaple/libmaple/libmaple/timer.h **** /*
 521:../Libmaple/libmaple/libmaple/timer.h ****  * Convenience routines
 522:../Libmaple/libmaple/libmaple/timer.h ****  */
 523:../Libmaple/libmaple/libmaple/timer.h **** 
 524:../Libmaple/libmaple/libmaple/timer.h **** /**
 525:../Libmaple/libmaple/libmaple/timer.h ****  * Used to configure the behavior of a timer channel.  Note that not
 526:../Libmaple/libmaple/libmaple/timer.h ****  * all timers can be configured in every mode.
 527:../Libmaple/libmaple/libmaple/timer.h ****  */
 528:../Libmaple/libmaple/libmaple/timer.h **** /* TODO TIMER_PWM_CENTER_ALIGNED, TIMER_INPUT_CAPTURE, TIMER_ONE_PULSE */
 529:../Libmaple/libmaple/libmaple/timer.h **** typedef enum timer_mode {
 530:../Libmaple/libmaple/libmaple/timer.h ****     TIMER_DISABLED, /**< In this mode, the timer stops counting,
 531:../Libmaple/libmaple/libmaple/timer.h ****                          channel interrupts are detached, and no state
 532:../Libmaple/libmaple/libmaple/timer.h ****                          changes are output. */
 533:../Libmaple/libmaple/libmaple/timer.h ****     TIMER_PWM, /**< PWM output mode. This is the default mode for pins
 534:../Libmaple/libmaple/libmaple/timer.h ****                     after initialization. */
 535:../Libmaple/libmaple/libmaple/timer.h ****     /* TIMER_PWM_CENTER_ALIGNED, /\**< Center-aligned PWM output mode. *\/ */
 536:../Libmaple/libmaple/libmaple/timer.h ****     TIMER_OUTPUT_COMPARE, /**< In this mode, the timer counts from 0
 537:../Libmaple/libmaple/libmaple/timer.h ****                                to its reload value repeatedly; every
 538:../Libmaple/libmaple/libmaple/timer.h ****                                time the counter value reaches one of
 539:../Libmaple/libmaple/libmaple/timer.h ****                                the channel compare values, the
 540:../Libmaple/libmaple/libmaple/timer.h ****                                corresponding interrupt is fired. */
 541:../Libmaple/libmaple/libmaple/timer.h ****     /* TIMER_INPUT_CAPTURE, /\**< In this mode, the timer can measure the */
 542:../Libmaple/libmaple/libmaple/timer.h ****     /*                           pulse lengths of input signals. *\/ */
 543:../Libmaple/libmaple/libmaple/timer.h ****     /* TIMER_ONE_PULSE /\**< In this mode, the timer can generate a single */
 544:../Libmaple/libmaple/libmaple/timer.h ****     /*                      pulse on a GPIO pin for a specified amount of */
 545:../Libmaple/libmaple/libmaple/timer.h ****     /*                      time. *\/ */
 546:../Libmaple/libmaple/libmaple/timer.h **** } timer_mode;
 547:../Libmaple/libmaple/libmaple/timer.h **** 
 548:../Libmaple/libmaple/libmaple/timer.h **** /** Timer channel numbers */
 549:../Libmaple/libmaple/libmaple/timer.h **** typedef enum timer_channel {
 550:../Libmaple/libmaple/libmaple/timer.h ****     TIMER_CH1 = 1, /**< Channel 1 */
 551:../Libmaple/libmaple/libmaple/timer.h ****     TIMER_CH2 = 2, /**< Channel 2 */
 552:../Libmaple/libmaple/libmaple/timer.h ****     TIMER_CH3 = 3, /**< Channel 3 */
 553:../Libmaple/libmaple/libmaple/timer.h ****     TIMER_CH4 = 4  /**< Channel 4 */
 554:../Libmaple/libmaple/libmaple/timer.h **** } timer_channel;
 555:../Libmaple/libmaple/libmaple/timer.h **** 
 556:../Libmaple/libmaple/libmaple/timer.h **** /*
 557:../Libmaple/libmaple/libmaple/timer.h ****  * Note: Don't require timer_channel arguments! We want to be able to say
 558:../Libmaple/libmaple/libmaple/timer.h ****  *
 559:../Libmaple/libmaple/libmaple/timer.h ****  * for (int channel = 1; channel <= 4; channel++) {
 560:../Libmaple/libmaple/libmaple/timer.h ****  *    ...
 561:../Libmaple/libmaple/libmaple/timer.h ****  * }
 562:../Libmaple/libmaple/libmaple/timer.h ****  *
 563:../Libmaple/libmaple/libmaple/timer.h ****  * without the compiler yelling at us.
 564:../Libmaple/libmaple/libmaple/timer.h ****  */
 565:../Libmaple/libmaple/libmaple/timer.h **** 
 566:../Libmaple/libmaple/libmaple/timer.h **** void timer_init(timer_dev *dev);
 567:../Libmaple/libmaple/libmaple/timer.h **** void timer_disable(timer_dev *dev);
 568:../Libmaple/libmaple/libmaple/timer.h **** void timer_set_mode(timer_dev *dev, uint8 channel, timer_mode mode);
 569:../Libmaple/libmaple/libmaple/timer.h **** void timer_foreach(void (*fn)(timer_dev*));
 570:../Libmaple/libmaple/libmaple/timer.h **** 
 571:../Libmaple/libmaple/libmaple/timer.h **** /**
 572:../Libmaple/libmaple/libmaple/timer.h ****  * @brief Timer interrupt number.
 573:../Libmaple/libmaple/libmaple/timer.h ****  *
 574:../Libmaple/libmaple/libmaple/timer.h ****  * Not all timers support all of these values; see the descriptions
 575:../Libmaple/libmaple/libmaple/timer.h ****  * for each value.
 576:../Libmaple/libmaple/libmaple/timer.h ****  */
 577:../Libmaple/libmaple/libmaple/timer.h **** typedef enum timer_interrupt_id {
 578:../Libmaple/libmaple/libmaple/timer.h ****     TIMER_UPDATE_INTERRUPT, /**< Update interrupt, available on all timers. */
 579:../Libmaple/libmaple/libmaple/timer.h ****     TIMER_CC1_INTERRUPT, /**< Capture/compare 1 interrupt, available
 580:../Libmaple/libmaple/libmaple/timer.h ****                               on general and advanced timers only. */
 581:../Libmaple/libmaple/libmaple/timer.h ****     TIMER_CC2_INTERRUPT, /**< Capture/compare 2 interrupt, general and
 582:../Libmaple/libmaple/libmaple/timer.h ****                               advanced timers only. */
 583:../Libmaple/libmaple/libmaple/timer.h ****     TIMER_CC3_INTERRUPT, /**< Capture/compare 3 interrupt, general and
 584:../Libmaple/libmaple/libmaple/timer.h ****                               advanced timers only. */
 585:../Libmaple/libmaple/libmaple/timer.h ****     TIMER_CC4_INTERRUPT, /**< Capture/compare 4 interrupt, general and
 586:../Libmaple/libmaple/libmaple/timer.h ****                               advanced timers only. */
 587:../Libmaple/libmaple/libmaple/timer.h ****     TIMER_COM_INTERRUPT, /**< COM interrupt, advanced timers only */
 588:../Libmaple/libmaple/libmaple/timer.h ****     TIMER_TRG_INTERRUPT, /**< Trigger interrupt, general and advanced
 589:../Libmaple/libmaple/libmaple/timer.h ****                               timers only */
 590:../Libmaple/libmaple/libmaple/timer.h ****     TIMER_BREAK_INTERRUPT /**< Break interrupt, advanced timers only. */
 591:../Libmaple/libmaple/libmaple/timer.h **** } timer_interrupt_id;
 592:../Libmaple/libmaple/libmaple/timer.h **** 
 593:../Libmaple/libmaple/libmaple/timer.h **** void timer_attach_interrupt(timer_dev *dev,
 594:../Libmaple/libmaple/libmaple/timer.h ****                             uint8 interrupt,
 595:../Libmaple/libmaple/libmaple/timer.h ****                             voidFuncPtr handler);
 596:../Libmaple/libmaple/libmaple/timer.h **** void timer_detach_interrupt(timer_dev *dev, uint8 interrupt);
 597:../Libmaple/libmaple/libmaple/timer.h **** 
 598:../Libmaple/libmaple/libmaple/timer.h **** /**
 599:../Libmaple/libmaple/libmaple/timer.h ****  * Initialize all timer devices on the chip.
 600:../Libmaple/libmaple/libmaple/timer.h ****  */
 601:../Libmaple/libmaple/libmaple/timer.h **** static inline void timer_init_all(void) {
 602:../Libmaple/libmaple/libmaple/timer.h ****     timer_foreach(timer_init);
 603:../Libmaple/libmaple/libmaple/timer.h **** }
 604:../Libmaple/libmaple/libmaple/timer.h **** 
 605:../Libmaple/libmaple/libmaple/timer.h **** /**
 606:../Libmaple/libmaple/libmaple/timer.h ****  * Disables all timers on the device.
 607:../Libmaple/libmaple/libmaple/timer.h ****  */
 608:../Libmaple/libmaple/libmaple/timer.h **** static inline void timer_disable_all(void) {
 609:../Libmaple/libmaple/libmaple/timer.h ****     timer_foreach(timer_disable);
 610:../Libmaple/libmaple/libmaple/timer.h **** }
 611:../Libmaple/libmaple/libmaple/timer.h **** 
 612:../Libmaple/libmaple/libmaple/timer.h **** /**
 613:../Libmaple/libmaple/libmaple/timer.h ****  * @brief Stop a timer's counter from changing.
 614:../Libmaple/libmaple/libmaple/timer.h ****  *
 615:../Libmaple/libmaple/libmaple/timer.h ****  * Does not affect the timer's mode or other settings.
 616:../Libmaple/libmaple/libmaple/timer.h ****  *
 617:../Libmaple/libmaple/libmaple/timer.h ****  * @param dev Device whose counter to pause.
 618:../Libmaple/libmaple/libmaple/timer.h ****  */
 619:../Libmaple/libmaple/libmaple/timer.h **** static inline void timer_pause(timer_dev *dev) {
 620:../Libmaple/libmaple/libmaple/timer.h ****     *bb_perip(&(dev->regs).bas->CR1, TIMER_CR1_CEN_BIT) = 0;
 621:../Libmaple/libmaple/libmaple/timer.h **** }
 622:../Libmaple/libmaple/libmaple/timer.h **** 
 623:../Libmaple/libmaple/libmaple/timer.h **** /**
 624:../Libmaple/libmaple/libmaple/timer.h ****  * @brief Start a timer's counter.
 625:../Libmaple/libmaple/libmaple/timer.h ****  *
 626:../Libmaple/libmaple/libmaple/timer.h ****  * Does not affect the timer's mode or other settings.
 627:../Libmaple/libmaple/libmaple/timer.h ****  *
 628:../Libmaple/libmaple/libmaple/timer.h ****  * @param dev Device whose counter to resume
 629:../Libmaple/libmaple/libmaple/timer.h ****  */
 630:../Libmaple/libmaple/libmaple/timer.h **** static inline void timer_resume(timer_dev *dev) {
 631:../Libmaple/libmaple/libmaple/timer.h ****     *bb_perip(&(dev->regs).bas->CR1, TIMER_CR1_CEN_BIT) = 1;
 632:../Libmaple/libmaple/libmaple/timer.h **** }
 633:../Libmaple/libmaple/libmaple/timer.h **** 
 634:../Libmaple/libmaple/libmaple/timer.h **** /**
 635:../Libmaple/libmaple/libmaple/timer.h ****  * @brief Returns the timer's counter value.
 636:../Libmaple/libmaple/libmaple/timer.h ****  *
 637:../Libmaple/libmaple/libmaple/timer.h ****  * This value is likely to be inaccurate if the counter is running
 638:../Libmaple/libmaple/libmaple/timer.h ****  * with a low prescaler.
 639:../Libmaple/libmaple/libmaple/timer.h ****  *
 640:../Libmaple/libmaple/libmaple/timer.h ****  * @param dev Timer whose counter to return
 641:../Libmaple/libmaple/libmaple/timer.h ****  */
 642:../Libmaple/libmaple/libmaple/timer.h **** static inline uint16 timer_get_count(timer_dev *dev) {
 643:../Libmaple/libmaple/libmaple/timer.h ****     return (uint16)(dev->regs).bas->CNT;
 644:../Libmaple/libmaple/libmaple/timer.h **** }
 645:../Libmaple/libmaple/libmaple/timer.h **** 
 646:../Libmaple/libmaple/libmaple/timer.h **** /**
 647:../Libmaple/libmaple/libmaple/timer.h ****  * @brief Sets the counter value for the given timer.
 648:../Libmaple/libmaple/libmaple/timer.h ****  * @param dev Timer whose counter to set
 649:../Libmaple/libmaple/libmaple/timer.h ****  * @param value New counter value
 650:../Libmaple/libmaple/libmaple/timer.h ****  */
 651:../Libmaple/libmaple/libmaple/timer.h **** static inline void timer_set_count(timer_dev *dev, uint16 value) {
 652:../Libmaple/libmaple/libmaple/timer.h ****     (dev->regs).bas->CNT = value;
 653:../Libmaple/libmaple/libmaple/timer.h **** }
 654:../Libmaple/libmaple/libmaple/timer.h **** 
 655:../Libmaple/libmaple/libmaple/timer.h **** /**
 656:../Libmaple/libmaple/libmaple/timer.h ****  * @brief Returns the given timer's prescaler.
 657:../Libmaple/libmaple/libmaple/timer.h ****  *
 658:../Libmaple/libmaple/libmaple/timer.h ****  * Note that if the timer's prescaler is set (e.g. via
 659:../Libmaple/libmaple/libmaple/timer.h ****  * timer_set_prescaler() or accessing a TIMx_PSC register), the value
 660:../Libmaple/libmaple/libmaple/timer.h ****  * returned by this function will reflect the new setting, but the
 661:../Libmaple/libmaple/libmaple/timer.h ****  * timer's counter will only reflect the new prescaler at the next
 662:../Libmaple/libmaple/libmaple/timer.h ****  * update event.
 663:../Libmaple/libmaple/libmaple/timer.h ****  *
 664:../Libmaple/libmaple/libmaple/timer.h ****  * @param dev Timer whose prescaler to return
 665:../Libmaple/libmaple/libmaple/timer.h ****  * @see timer_generate_update()
 666:../Libmaple/libmaple/libmaple/timer.h ****  */
 667:../Libmaple/libmaple/libmaple/timer.h **** static inline uint16 timer_get_prescaler(timer_dev *dev) {
 668:../Libmaple/libmaple/libmaple/timer.h ****     return (uint16)(dev->regs).bas->PSC;
 669:../Libmaple/libmaple/libmaple/timer.h **** }
 670:../Libmaple/libmaple/libmaple/timer.h **** 
 671:../Libmaple/libmaple/libmaple/timer.h **** /**
 672:../Libmaple/libmaple/libmaple/timer.h ****  * @brief Set a timer's prescale value.
 673:../Libmaple/libmaple/libmaple/timer.h ****  *
 674:../Libmaple/libmaple/libmaple/timer.h ****  * Divides the input clock by (PSC+1).  The new value will not take
 675:../Libmaple/libmaple/libmaple/timer.h ****  * effect until the next update event.
 676:../Libmaple/libmaple/libmaple/timer.h ****  *
 677:../Libmaple/libmaple/libmaple/timer.h ****  * @param dev Timer whose prescaler to set
 678:../Libmaple/libmaple/libmaple/timer.h ****  * @param psc New prescaler value
 679:../Libmaple/libmaple/libmaple/timer.h ****  * @see timer_generate_update()
 680:../Libmaple/libmaple/libmaple/timer.h ****  */
 681:../Libmaple/libmaple/libmaple/timer.h **** static inline void timer_set_prescaler(timer_dev *dev, uint16 psc) {
 682:../Libmaple/libmaple/libmaple/timer.h ****     (dev->regs).bas->PSC = psc;
 683:../Libmaple/libmaple/libmaple/timer.h **** }
 684:../Libmaple/libmaple/libmaple/timer.h **** 
 685:../Libmaple/libmaple/libmaple/timer.h **** /**
 686:../Libmaple/libmaple/libmaple/timer.h ****  * @brief Returns a timer's reload value.
 687:../Libmaple/libmaple/libmaple/timer.h ****  * @param dev Timer whose reload value to return
 688:../Libmaple/libmaple/libmaple/timer.h ****  */
 689:../Libmaple/libmaple/libmaple/timer.h **** static inline uint16 timer_get_reload(timer_dev *dev) {
 690:../Libmaple/libmaple/libmaple/timer.h ****     return (uint16)(dev->regs).bas->ARR;
 691:../Libmaple/libmaple/libmaple/timer.h **** }
 692:../Libmaple/libmaple/libmaple/timer.h **** 
 693:../Libmaple/libmaple/libmaple/timer.h **** /**
 694:../Libmaple/libmaple/libmaple/timer.h ****  * @brief Set a timer's reload value.
 695:../Libmaple/libmaple/libmaple/timer.h ****  * @param dev Timer whose reload value to set
 696:../Libmaple/libmaple/libmaple/timer.h ****  * @param arr New reload value to use.  Takes effect at next update event.
 697:../Libmaple/libmaple/libmaple/timer.h ****  * @see timer_generate_update()
 698:../Libmaple/libmaple/libmaple/timer.h ****  */
 699:../Libmaple/libmaple/libmaple/timer.h **** static inline void timer_set_reload(timer_dev *dev, uint16 arr) {
 700:../Libmaple/libmaple/libmaple/timer.h ****     (dev->regs).bas->ARR = arr;
 701:../Libmaple/libmaple/libmaple/timer.h **** }
 702:../Libmaple/libmaple/libmaple/timer.h **** 
 703:../Libmaple/libmaple/libmaple/timer.h **** /**
 704:../Libmaple/libmaple/libmaple/timer.h ****  * @brief Get the compare value for the given timer channel.
 705:../Libmaple/libmaple/libmaple/timer.h ****  * @param dev Timer device, must have type TIMER_ADVANCED or TIMER_GENERAL.
 706:../Libmaple/libmaple/libmaple/timer.h ****  * @param channel Channel whose compare value to get.
 707:../Libmaple/libmaple/libmaple/timer.h ****  */
 708:../Libmaple/libmaple/libmaple/timer.h **** static inline uint16 timer_get_compare(timer_dev *dev, uint8 channel) {
 709:../Libmaple/libmaple/libmaple/timer.h ****     __io uint32 *ccr = &(dev->regs).gen->CCR1 + (channel - 1);
 710:../Libmaple/libmaple/libmaple/timer.h ****     return *ccr;
 711:../Libmaple/libmaple/libmaple/timer.h **** }
 712:../Libmaple/libmaple/libmaple/timer.h **** 
 713:../Libmaple/libmaple/libmaple/timer.h **** /**
 714:../Libmaple/libmaple/libmaple/timer.h ****  * @brief Set the compare value for the given timer channel.
 715:../Libmaple/libmaple/libmaple/timer.h ****  * @param dev Timer device, must have type TIMER_ADVANCED or TIMER_GENERAL.
 716:../Libmaple/libmaple/libmaple/timer.h ****  * @param channel Channel whose compare value to set.
 717:../Libmaple/libmaple/libmaple/timer.h ****  * @param value   New compare value.
 718:../Libmaple/libmaple/libmaple/timer.h ****  */
 719:../Libmaple/libmaple/libmaple/timer.h **** static inline void timer_set_compare(timer_dev *dev,
 187              		.loc 4 719 0
 188              		.cfi_startproc
 189              		@ args = 0, pretend = 0, frame = 0
 190              		@ frame_needed = 0, uses_anonymous_args = 0
 191              		@ link register save eliminated.
 192              	.LVL5:
 193              	.LBB13:
 720:../Libmaple/libmaple/libmaple/timer.h ****                                      uint8 channel,
 721:../Libmaple/libmaple/libmaple/timer.h ****                                      uint16 value) {
 722:../Libmaple/libmaple/libmaple/timer.h ****     __io uint32 *ccr = &(dev->regs).gen->CCR1 + (channel - 1);
 194              		.loc 4 722 0
 195 0000 3430     		adds	r0, r0, #52
 196 0002 0139     		subs	r1, r1, #1
 197              	.LVL6:
 723:../Libmaple/libmaple/libmaple/timer.h ****     *ccr = value;
 198              		.loc 4 723 0
 199 0004 40F82120 		str	r2, [r0, r1, lsl #2]
 200              	.LBE13:
 724:../Libmaple/libmaple/libmaple/timer.h **** }
 201              		.loc 4 724 0
 202 0008 7047     		bx	lr
 203              		.cfi_endproc
 204              	.LFE323:
 206              		.section	.text.startup._Z7premainv,"ax",%progbits
 207              		.align	1
 208              		.global	_Z7premainv
 209              		.thumb
 210              		.thumb_func
 212              	_Z7premainv:
 213              	.LFB114:
 214              		.file 5 "C:/MinGW/msys/1.0/AeroQuad_v3.2/AeroQuad32/AeroQuadMain.cpp"
   1:C:/MinGW/msys/1.0/AeroQuad_v3.2/AeroQuad32\AeroQuadMain.cpp **** #include <../AeroQuad/UserConfiguration.h>
   2:C:/MinGW/msys/1.0/AeroQuad_v3.2/AeroQuad32\AeroQuadMain.cpp **** #include <SerialMapping.h>
   3:C:/MinGW/msys/1.0/AeroQuad_v3.2/AeroQuad32\AeroQuadMain.cpp **** #include <WProgram.h>
   4:C:/MinGW/msys/1.0/AeroQuad_v3.2/AeroQuad32\AeroQuadMain.cpp **** 
   5:C:/MinGW/msys/1.0/AeroQuad_v3.2/AeroQuad32\AeroQuadMain.cpp **** __attribute__(( constructor )) void premain() {
 215              		.loc 5 5 0
 216              		.cfi_startproc
 217              		@ args = 0, pretend = 0, frame = 0
 218              		@ frame_needed = 0, uses_anonymous_args = 0
 219              		@ link register save eliminated.
   6:C:/MinGW/msys/1.0/AeroQuad_v3.2/AeroQuad32\AeroQuadMain.cpp ****     init();
   7:C:/MinGW/msys/1.0/AeroQuad_v3.2/AeroQuad32\AeroQuadMain.cpp **** }
 220              		.loc 5 7 0
   6:C:/MinGW/msys/1.0/AeroQuad_v3.2/AeroQuad32\AeroQuadMain.cpp ****     init();
 221              		.loc 5 6 0
 222 0000 FFF7FEBF 		b	_Z4initv
 223              		.cfi_endproc
 224              	.LFE114:
 226              		.section	.init_array,"aw",%init_array
 227              		.align	2
 228 0000 00000000 		.word	_Z7premainv(target1)
 229              		.section	.text._init,"ax",%progbits
 230              		.align	1
 231              		.global	_init
 232              		.thumb
 233              		.thumb_func
 235              	_init:
 236              	.LFB115:
   8:C:/MinGW/msys/1.0/AeroQuad_v3.2/AeroQuad32\AeroQuadMain.cpp **** 
   9:C:/MinGW/msys/1.0/AeroQuad_v3.2/AeroQuad32\AeroQuadMain.cpp **** extern "C"{
  10:C:/MinGW/msys/1.0/AeroQuad_v3.2/AeroQuad32\AeroQuadMain.cpp ****         void _init(){};
 237              		.loc 5 10 0
 238              		.cfi_startproc
 239              		@ args = 0, pretend = 0, frame = 0
 240              		@ frame_needed = 0, uses_anonymous_args = 0
 241              		@ link register save eliminated.
 242              		.loc 5 10 0
 243 0000 7047     		bx	lr
 244              		.cfi_endproc
 245              	.LFE115:
 247              		.section	.text._Z23initializeReceiverParami,"ax",%progbits
 248              		.align	1
 249              		.global	_Z23initializeReceiverParami
 250              		.thumb
 251              		.thumb_func
 253              	_Z23initializeReceiverParami:
 254              	.LFB123:
 255              		.file 6 "../Libraries/AQ_Receiver/Receiver.h"
   1:../Libraries/AQ_Receiver/Receiver.h **** /*
   2:../Libraries/AQ_Receiver/Receiver.h ****   AeroQuad v3.0.1 - February 2012
   3:../Libraries/AQ_Receiver/Receiver.h ****   www.AeroQuad.com
   4:../Libraries/AQ_Receiver/Receiver.h ****   Copyright (c) 2012 Ted Carancho.  All rights reserved.
   5:../Libraries/AQ_Receiver/Receiver.h ****   An Open Source Arduino based multicopter.
   6:../Libraries/AQ_Receiver/Receiver.h ****  
   7:../Libraries/AQ_Receiver/Receiver.h ****   This program is free software: you can redistribute it and/or modify 
   8:../Libraries/AQ_Receiver/Receiver.h ****   it under the terms of the GNU General Public License as published by 
   9:../Libraries/AQ_Receiver/Receiver.h ****   the Free Software Foundation, either version 3 of the License, or 
  10:../Libraries/AQ_Receiver/Receiver.h ****   (at your option) any later version. 
  11:../Libraries/AQ_Receiver/Receiver.h **** 
  12:../Libraries/AQ_Receiver/Receiver.h ****   This program is distributed in the hope that it will be useful, 
  13:../Libraries/AQ_Receiver/Receiver.h ****   but WITHOUT ANY WARRANTY; without even the implied warranty of 
  14:../Libraries/AQ_Receiver/Receiver.h ****   MERCHANTABILITY or FITNESS FOR A PARTICULAR PURPOSE. See the 
  15:../Libraries/AQ_Receiver/Receiver.h ****   GNU General Public License for more details. 
  16:../Libraries/AQ_Receiver/Receiver.h **** 
  17:../Libraries/AQ_Receiver/Receiver.h ****   You should have received a copy of the GNU General Public License 
  18:../Libraries/AQ_Receiver/Receiver.h ****   along with this program. If not, see <http://www.gnu.org/licenses/>. 
  19:../Libraries/AQ_Receiver/Receiver.h **** */
  20:../Libraries/AQ_Receiver/Receiver.h **** 
  21:../Libraries/AQ_Receiver/Receiver.h **** #ifndef _AEROQUAD_RECEIVER_H_
  22:../Libraries/AQ_Receiver/Receiver.h **** #define _AEROQUAD_RECEIVER_H_
  23:../Libraries/AQ_Receiver/Receiver.h **** 
  24:../Libraries/AQ_Receiver/Receiver.h **** #include "Arduino.h"
  25:../Libraries/AQ_Receiver/Receiver.h **** 
  26:../Libraries/AQ_Receiver/Receiver.h **** #define PWM2RAD 0.002 //  Based upon 5RAD for full stick movement, you take this times the RAD to g
  27:../Libraries/AQ_Receiver/Receiver.h **** 
  28:../Libraries/AQ_Receiver/Receiver.h **** // Receiver variables
  29:../Libraries/AQ_Receiver/Receiver.h **** #define TIMEOUT 25000
  30:../Libraries/AQ_Receiver/Receiver.h **** #define MINCOMMAND 1000
  31:../Libraries/AQ_Receiver/Receiver.h **** #define MIDCOMMAND 1500
  32:../Libraries/AQ_Receiver/Receiver.h **** #define MAXCOMMAND 2000
  33:../Libraries/AQ_Receiver/Receiver.h **** #define MINDELTA 200
  34:../Libraries/AQ_Receiver/Receiver.h **** #define MINCHECK (MINCOMMAND + 100)
  35:../Libraries/AQ_Receiver/Receiver.h **** #define MAXCHECK (MAXCOMMAND - 100)
  36:../Libraries/AQ_Receiver/Receiver.h **** #define MINTHROTTLE (MINCOMMAND + 100)
  37:../Libraries/AQ_Receiver/Receiver.h **** #define LEVELOFF 100
  38:../Libraries/AQ_Receiver/Receiver.h **** #define MAX_NB_CHANNEL 10
  39:../Libraries/AQ_Receiver/Receiver.h **** 
  40:../Libraries/AQ_Receiver/Receiver.h **** int lastReceiverChannel = 0;
  41:../Libraries/AQ_Receiver/Receiver.h **** 
  42:../Libraries/AQ_Receiver/Receiver.h **** float receiverXmitFactor = 0.0;
  43:../Libraries/AQ_Receiver/Receiver.h **** int receiverData[MAX_NB_CHANNEL] = {0,0,0,0,0,0,0,0,0,0};
  44:../Libraries/AQ_Receiver/Receiver.h **** int receiverZero[3] = {0,0,0};
  45:../Libraries/AQ_Receiver/Receiver.h **** int receiverCommand[MAX_NB_CHANNEL] = {0,0,0,0,0,0,0,0,0,0};
  46:../Libraries/AQ_Receiver/Receiver.h **** int receiverCommandSmooth[MAX_NB_CHANNEL] = {0,0,0,0,0,0,0,0,0,0,};
  47:../Libraries/AQ_Receiver/Receiver.h **** float receiverSlope[MAX_NB_CHANNEL] = {0.0,0.0,0.0,0.0,0.0,0.0,0.0,0.0,0.0,0.0};
  48:../Libraries/AQ_Receiver/Receiver.h **** float receiverOffset[MAX_NB_CHANNEL] = {0.0,0.0,0.0,0.0,0.0,0.0,0.0,0.0,0.0,0.0};
  49:../Libraries/AQ_Receiver/Receiver.h **** float receiverSmoothFactor[MAX_NB_CHANNEL] = {0.0,0.0,0.0,0.0,0.0,0.0,0.0,0.0,0.0,0.0};
  50:../Libraries/AQ_Receiver/Receiver.h **** int channelCal;
  51:../Libraries/AQ_Receiver/Receiver.h **** 
  52:../Libraries/AQ_Receiver/Receiver.h **** void initializeReceiverParam(int nbChannel = 6) {
 256              		.loc 6 52 0
 257              		.cfi_startproc
 258              		@ args = 0, pretend = 0, frame = 0
 259              		@ frame_needed = 0, uses_anonymous_args = 0
 260              		@ link register save eliminated.
 261              	.LVL7:
 262              	.LBB14:
  53:../Libraries/AQ_Receiver/Receiver.h ****   
  54:../Libraries/AQ_Receiver/Receiver.h ****   lastReceiverChannel = nbChannel;
 263              		.loc 6 54 0
 264 0000 254A     		ldr	r2, .L28
  55:../Libraries/AQ_Receiver/Receiver.h **** 
  56:../Libraries/AQ_Receiver/Receiver.h ****   receiverCommand[XAXIS] = 1500;
 265              		.loc 6 56 0
 266 0002 264B     		ldr	r3, .L28+4
  54:../Libraries/AQ_Receiver/Receiver.h ****   lastReceiverChannel = nbChannel;
 267              		.loc 6 54 0
 268 0004 1060     		str	r0, [r2, #0]
 269              		.loc 6 56 0
 270 0006 40F2DC51 		movw	r1, #1500
  57:../Libraries/AQ_Receiver/Receiver.h ****   receiverCommand[YAXIS] = 1500;
  58:../Libraries/AQ_Receiver/Receiver.h ****   receiverCommand[ZAXIS] = 1500;
  59:../Libraries/AQ_Receiver/Receiver.h ****   receiverCommand[THROTTLE] = 1000;
 271              		.loc 6 59 0
 272 000a 4FF47A72 		mov	r2, #1000
  56:../Libraries/AQ_Receiver/Receiver.h ****   receiverCommand[XAXIS] = 1500;
 273              		.loc 6 56 0
 274 000e 1960     		str	r1, [r3, #0]
  57:../Libraries/AQ_Receiver/Receiver.h ****   receiverCommand[YAXIS] = 1500;
 275              		.loc 6 57 0
 276 0010 5960     		str	r1, [r3, #4]
  58:../Libraries/AQ_Receiver/Receiver.h ****   receiverCommand[ZAXIS] = 1500;
 277              		.loc 6 58 0
 278 0012 9960     		str	r1, [r3, #8]
 279              		.loc 6 59 0
 280 0014 DA60     		str	r2, [r3, #12]
  60:../Libraries/AQ_Receiver/Receiver.h ****   receiverCommand[MODE] = 1000;
 281              		.loc 6 60 0
 282 0016 1A61     		str	r2, [r3, #16]
  61:../Libraries/AQ_Receiver/Receiver.h ****   receiverCommand[AUX1] = 1000;
 283              		.loc 6 61 0
 284 0018 5A61     		str	r2, [r3, #20]
  62:../Libraries/AQ_Receiver/Receiver.h ****   receiverCommand[AUX2] = 1000;
 285              		.loc 6 62 0
 286 001a 9A61     		str	r2, [r3, #24]
  63:../Libraries/AQ_Receiver/Receiver.h ****   receiverCommand[AUX3] = 1000;
 287              		.loc 6 63 0
 288 001c DA61     		str	r2, [r3, #28]
  64:../Libraries/AQ_Receiver/Receiver.h ****   receiverCommand[AUX4] = 1000;
 289              		.loc 6 64 0
 290 001e 1A62     		str	r2, [r3, #32]
  65:../Libraries/AQ_Receiver/Receiver.h ****   receiverCommand[AUX5] = 1000;
 291              		.loc 6 65 0
 292 0020 5A62     		str	r2, [r3, #36]
 293              	.LVL8:
 294              	.LBB15:
  66:../Libraries/AQ_Receiver/Receiver.h ****   
  67:../Libraries/AQ_Receiver/Receiver.h ****   for (byte channel = XAXIS; channel < lastReceiverChannel; channel++) {
 295              		.loc 6 67 0
 296 0022 0023     		movs	r3, #0
 297 0024 07E0     		b	.L20
 298              	.LVL9:
 299              	.L21:
  68:../Libraries/AQ_Receiver/Receiver.h ****     receiverCommandSmooth[channel] = 1.0;
 300              		.loc 6 68 0 discriminator 2
 301 0026 0121     		movs	r1, #1
 302 0028 1D4A     		ldr	r2, .L28+8
  67:../Libraries/AQ_Receiver/Receiver.h ****   for (byte channel = XAXIS; channel < lastReceiverChannel; channel++) {
 303              		.loc 6 67 0 discriminator 2
 304 002a 03EB010C 		add	ip, r3, r1
 305              		.loc 6 68 0 discriminator 2
 306 002e 42F82310 		str	r1, [r2, r3, lsl #2]
  67:../Libraries/AQ_Receiver/Receiver.h ****   for (byte channel = XAXIS; channel < lastReceiverChannel; channel++) {
 307              		.loc 6 67 0 discriminator 2
 308 0032 5FFA8CF3 		uxtb	r3, ip
 309              	.LVL10:
 310              	.L20:
  67:../Libraries/AQ_Receiver/Receiver.h ****   for (byte channel = XAXIS; channel < lastReceiverChannel; channel++) {
 311              		.loc 6 67 0 is_stmt 0 discriminator 1
 312 0036 8342     		cmp	r3, r0
 313 0038 F5DB     		blt	.L21
 314              	.LVL11:
 315              	.LBE15:
 316              	.LBB16:
  69:../Libraries/AQ_Receiver/Receiver.h ****   }
  70:../Libraries/AQ_Receiver/Receiver.h ****   for (byte channel = XAXIS; channel < THROTTLE; channel++) {
  71:../Libraries/AQ_Receiver/Receiver.h ****     receiverZero[channel] = 1500;
 317              		.loc 6 71 0 is_stmt 1 discriminator 1
 318 003a 1A4B     		ldr	r3, .L28+12
 319              	.LVL12:
 320 003c 40F2DC51 		movw	r1, #1500
 321 0040 1960     		str	r1, [r3, #0]
 322              	.LVL13:
 323 0042 5960     		str	r1, [r3, #4]
 324              	.LVL14:
 325 0044 9960     		str	r1, [r3, #8]
 326              	.LVL15:
 327 0046 0023     		movs	r3, #0
 328 0048 08E0     		b	.L22
 329              	.LVL16:
 330              	.L23:
 331              	.LBE16:
 332              	.LBB17:
  72:../Libraries/AQ_Receiver/Receiver.h ****   }
  73:../Libraries/AQ_Receiver/Receiver.h **** 	
  74:../Libraries/AQ_Receiver/Receiver.h ****   for (byte channel = XAXIS; channel < lastReceiverChannel; channel++) {
  75:../Libraries/AQ_Receiver/Receiver.h ****     receiverSlope[channel] = 1;
 333              		.loc 6 75 0 discriminator 2
 334 004a 174A     		ldr	r2, .L28+16
 335 004c 02EB8301 		add	r1, r2, r3, lsl #2
 336 0050 4FF07E5C 		mov	ip, #1065353216
  74:../Libraries/AQ_Receiver/Receiver.h ****   for (byte channel = XAXIS; channel < lastReceiverChannel; channel++) {
 337              		.loc 6 74 0 discriminator 2
 338 0054 5A1C     		adds	r2, r3, #1
 339              		.loc 6 75 0 discriminator 2
 340 0056 C1F800C0 		str	ip, [r1, #0]	@ float
  74:../Libraries/AQ_Receiver/Receiver.h ****   for (byte channel = XAXIS; channel < lastReceiverChannel; channel++) {
 341              		.loc 6 74 0 discriminator 2
 342 005a D3B2     		uxtb	r3, r2
 343              	.LVL17:
 344              	.L22:
  74:../Libraries/AQ_Receiver/Receiver.h ****   for (byte channel = XAXIS; channel < lastReceiverChannel; channel++) {
 345              		.loc 6 74 0 is_stmt 0 discriminator 1
 346 005c 8342     		cmp	r3, r0
 347 005e F4DB     		blt	.L23
  74:../Libraries/AQ_Receiver/Receiver.h ****   for (byte channel = XAXIS; channel < lastReceiverChannel; channel++) {
 348              		.loc 6 74 0
 349 0060 0023     		movs	r3, #0
 350              	.LVL18:
 351 0062 08E0     		b	.L24
 352              	.LVL19:
 353              	.L25:
 354              	.LBE17:
 355              	.LBB18:
  76:../Libraries/AQ_Receiver/Receiver.h ****   }	
  77:../Libraries/AQ_Receiver/Receiver.h ****   for (byte channel = XAXIS; channel < lastReceiverChannel; channel++) {
  78:../Libraries/AQ_Receiver/Receiver.h ****     receiverOffset[channel] = 1;
 356              		.loc 6 78 0 is_stmt 1 discriminator 2
 357 0064 114A     		ldr	r2, .L28+20
 358 0066 02EB8301 		add	r1, r2, r3, lsl #2
 359 006a 4FF07E5C 		mov	ip, #1065353216
  77:../Libraries/AQ_Receiver/Receiver.h ****   for (byte channel = XAXIS; channel < lastReceiverChannel; channel++) {
 360              		.loc 6 77 0 discriminator 2
 361 006e 0133     		adds	r3, r3, #1
 362              	.LVL20:
 363              		.loc 6 78 0 discriminator 2
 364 0070 C1F800C0 		str	ip, [r1, #0]	@ float
  77:../Libraries/AQ_Receiver/Receiver.h ****   for (byte channel = XAXIS; channel < lastReceiverChannel; channel++) {
 365              		.loc 6 77 0 discriminator 2
 366 0074 DBB2     		uxtb	r3, r3
 367              	.LVL21:
 368              	.L24:
  77:../Libraries/AQ_Receiver/Receiver.h ****   for (byte channel = XAXIS; channel < lastReceiverChannel; channel++) {
 369              		.loc 6 77 0 is_stmt 0 discriminator 1
 370 0076 8342     		cmp	r3, r0
 371 0078 F4DB     		blt	.L25
  77:../Libraries/AQ_Receiver/Receiver.h ****   for (byte channel = XAXIS; channel < lastReceiverChannel; channel++) {
 372              		.loc 6 77 0
 373 007a 0023     		movs	r3, #0
 374              	.LVL22:
 375 007c 08E0     		b	.L26
 376              	.LVL23:
 377              	.L27:
 378              	.LBE18:
 379              	.LBB19:
  79:../Libraries/AQ_Receiver/Receiver.h ****   }
  80:../Libraries/AQ_Receiver/Receiver.h ****   for (byte channel = XAXIS; channel < lastReceiverChannel; channel++) {
  81:../Libraries/AQ_Receiver/Receiver.h ****     receiverSmoothFactor[channel] = 1; 
 380              		.loc 6 81 0 is_stmt 1 discriminator 2
 381 007e 0C4A     		ldr	r2, .L28+24
 382 0080 02EB8301 		add	r1, r2, r3, lsl #2
 383 0084 4FF07E5C 		mov	ip, #1065353216
  80:../Libraries/AQ_Receiver/Receiver.h ****   for (byte channel = XAXIS; channel < lastReceiverChannel; channel++) {
 384              		.loc 6 80 0 discriminator 2
 385 0088 0133     		adds	r3, r3, #1
 386              	.LVL24:
 387              		.loc 6 81 0 discriminator 2
 388 008a C1F800C0 		str	ip, [r1, #0]	@ float
  80:../Libraries/AQ_Receiver/Receiver.h ****   for (byte channel = XAXIS; channel < lastReceiverChannel; channel++) {
 389              		.loc 6 80 0 discriminator 2
 390 008e DBB2     		uxtb	r3, r3
 391              	.LVL25:
 392              	.L26:
  80:../Libraries/AQ_Receiver/Receiver.h ****   for (byte channel = XAXIS; channel < lastReceiverChannel; channel++) {
 393              		.loc 6 80 0 is_stmt 0 discriminator 1
 394 0090 8342     		cmp	r3, r0
 395 0092 F4DB     		blt	.L27
 396              	.LBE19:
 397              	.LBE14:
  82:../Libraries/AQ_Receiver/Receiver.h ****   }
  83:../Libraries/AQ_Receiver/Receiver.h **** }
 398              		.loc 6 83 0 is_stmt 1
 399 0094 7047     		bx	lr
 400              	.L29:
 401 0096 00BF     		.align	2
 402              	.L28:
 403 0098 00000000 		.word	.LANCHOR1
 404 009c 00000000 		.word	.LANCHOR2
 405 00a0 00000000 		.word	.LANCHOR3
 406 00a4 00000000 		.word	.LANCHOR4
 407 00a8 00000000 		.word	.LANCHOR5
 408 00ac 00000000 		.word	.LANCHOR6
 409 00b0 00000000 		.word	.LANCHOR7
 410              		.cfi_endproc
 411              	.LFE123:
 413              		.section	.text._Z17getReceiverSIDatah,"ax",%progbits
 414              		.align	1
 415              		.global	_Z17getReceiverSIDatah
 416              		.thumb
 417              		.thumb_func
 419              	_Z17getReceiverSIDatah:
 420              	.LFB125:
  84:../Libraries/AQ_Receiver/Receiver.h ****   
  85:../Libraries/AQ_Receiver/Receiver.h **** int getRawChannelValue(byte channel);  
  86:../Libraries/AQ_Receiver/Receiver.h **** void readReceiver();
  87:../Libraries/AQ_Receiver/Receiver.h ****   
  88:../Libraries/AQ_Receiver/Receiver.h **** void readReceiver()
  89:../Libraries/AQ_Receiver/Receiver.h **** {
  90:../Libraries/AQ_Receiver/Receiver.h ****   for(byte channel = XAXIS; channel < lastReceiverChannel; channel++) {
  91:../Libraries/AQ_Receiver/Receiver.h **** 
  92:../Libraries/AQ_Receiver/Receiver.h ****     // Apply receiver calibration adjustment
  93:../Libraries/AQ_Receiver/Receiver.h ****     receiverData[channel] = (receiverSlope[channel] * getRawChannelValue(channel)) + receiverOffset
  94:../Libraries/AQ_Receiver/Receiver.h ****     // Smooth the flight control receiver inputs
  95:../Libraries/AQ_Receiver/Receiver.h ****     receiverCommandSmooth[channel] = filterSmooth(receiverData[channel], receiverCommandSmooth[chan
  96:../Libraries/AQ_Receiver/Receiver.h ****   }
  97:../Libraries/AQ_Receiver/Receiver.h ****   
  98:../Libraries/AQ_Receiver/Receiver.h ****   // Reduce receiver commands using receiverXmitFactor and center around 1500
  99:../Libraries/AQ_Receiver/Receiver.h ****   for (byte channel = XAXIS; channel < THROTTLE; channel++) {
 100:../Libraries/AQ_Receiver/Receiver.h ****     receiverCommand[channel] = ((receiverCommandSmooth[channel] - receiverZero[channel]) * receiver
 101:../Libraries/AQ_Receiver/Receiver.h ****   }	
 102:../Libraries/AQ_Receiver/Receiver.h ****   // No xmitFactor reduction applied for throttle, mode and AUX
 103:../Libraries/AQ_Receiver/Receiver.h ****   for (byte channel = THROTTLE; channel < lastReceiverChannel; channel++) {
 104:../Libraries/AQ_Receiver/Receiver.h ****     receiverCommand[channel] = receiverCommandSmooth[channel];
 105:../Libraries/AQ_Receiver/Receiver.h ****   }
 106:../Libraries/AQ_Receiver/Receiver.h **** }
 107:../Libraries/AQ_Receiver/Receiver.h **** 
 108:../Libraries/AQ_Receiver/Receiver.h **** 
 109:../Libraries/AQ_Receiver/Receiver.h **** void setChannelValue(byte channel,int value);
 110:../Libraries/AQ_Receiver/Receiver.h ****   
 111:../Libraries/AQ_Receiver/Receiver.h **** // return the smoothed & scaled number of radians/sec in stick movement - zero centered
 112:../Libraries/AQ_Receiver/Receiver.h **** const float getReceiverSIData(byte channel) {
 421              		.loc 6 112 0
 422              		.cfi_startproc
 423              		@ args = 0, pretend = 0, frame = 0
 424              		@ frame_needed = 0, uses_anonymous_args = 0
 425              		@ link register save eliminated.
 426              	.LVL26:
 113:../Libraries/AQ_Receiver/Receiver.h ****   return ((receiverCommand[channel] - receiverZero[channel]) * (2.5 * PWM2RAD));  // +/- 2.5RPS 50%
 427              		.loc 6 113 0
 428 0000 0849     		ldr	r1, .L31
 429 0002 094B     		ldr	r3, .L31+4
 430 0004 51F82020 		ldr	r2, [r1, r0, lsl #2]
 431 0008 53F82010 		ldr	r1, [r3, r0, lsl #2]
 432 000c 531A     		subs	r3, r2, r1
 433 000e 00EE103A 		fmsr	s0, r3	@ int
 114:../Libraries/AQ_Receiver/Receiver.h **** }
 434              		.loc 6 114 0
 435 0012 DFED067A 		flds	s15, .L31+8
 113:../Libraries/AQ_Receiver/Receiver.h ****   return ((receiverCommand[channel] - receiverZero[channel]) * (2.5 * PWM2RAD));  // +/- 2.5RPS 50%
 436              		.loc 6 113 0
 437 0016 B8EEC07A 		fsitos	s14, s0
 438              		.loc 6 114 0
 439 001a 67EE276A 		fmuls	s13, s14, s15
 440 001e 16EE900A 		fmrs	r0, s13
 441              	.LVL27:
 442 0022 7047     		bx	lr
 443              	.L32:
 444              		.align	2
 445              	.L31:
 446 0024 00000000 		.word	.LANCHOR2
 447 0028 00000000 		.word	.LANCHOR4
 448 002c 0BD7A33B 		.word	1000593163
 449              		.cfi_endproc
 450              	.LFE125:
 452              		.section	.text._Z16nmeaGetScaledIntPPcPli,"ax",%progbits
 453              		.align	1
 454              		.global	_Z16nmeaGetScaledIntPPcPli
 455              		.thumb
 456              		.thumb_func
 458              	_Z16nmeaGetScaledIntPPcPli:
 459              	.LFB127:
  41:../Libraries/AQ_Gps/nmea.h **** 
  42:../Libraries/AQ_Gps/nmea.h **** // read a optionally decimal number from string
  43:../Libraries/AQ_Gps/nmea.h **** // - value returned is always integer as multiplied to include wanted decimal count
  44:../Libraries/AQ_Gps/nmea.h **** // - this will also consume the leading comma (required)
  45:../Libraries/AQ_Gps/nmea.h **** // - out can be NULL to ignore read value
  46:../Libraries/AQ_Gps/nmea.h **** int nmeaGetScaledInt( char **s, long *out, int decimals ) {
 460              		.loc 3 46 0
 461              		.cfi_startproc
 462              		@ args = 0, pretend = 0, frame = 0
 463              		@ frame_needed = 0, uses_anonymous_args = 0
 464              	.LVL28:
 465 0000 0346     		mov	r3, r0
 466              	.LBB20:
  47:../Libraries/AQ_Gps/nmea.h **** 
  48:../Libraries/AQ_Gps/nmea.h ****   long val=0;
  49:../Libraries/AQ_Gps/nmea.h ****   int  ret=0;
 467              		.loc 3 49 0
 468 0002 0020     		movs	r0, #0
 469              	.LVL29:
 470              	.LBE20:
  46:../Libraries/AQ_Gps/nmea.h **** int nmeaGetScaledInt( char **s, long *out, int decimals ) {
 471              		.loc 3 46 0
 472 0004 F0B5     		push	{r4, r5, r6, r7, lr}
 473              	.LCFI1:
 474              		.cfi_def_cfa_offset 20
 475              		.cfi_offset 14, -4
 476              		.cfi_offset 7, -8
 477              		.cfi_offset 6, -12
 478              		.cfi_offset 5, -16
 479              		.cfi_offset 4, -20
 480              	.LBB21:
  48:../Libraries/AQ_Gps/nmea.h ****   long val=0;
 481              		.loc 3 48 0
 482 0006 0446     		mov	r4, r0
  50:../Libraries/AQ_Gps/nmea.h **** 
  51:../Libraries/AQ_Gps/nmea.h ****   // read whole numbers (prior to dot)
  52:../Libraries/AQ_Gps/nmea.h ****   while (((**s)>='0') && ((**s) <= '9')) {
 483              		.loc 3 52 0
 484 0008 05E0     		b	.L34
 485              	.LVL30:
 486              	.L35:
  53:../Libraries/AQ_Gps/nmea.h ****     val *= 10;
  54:../Libraries/AQ_Gps/nmea.h ****     val = val + (*((*s)++) - '0');
 487              		.loc 3 54 0
 488 000a 0A20     		movs	r0, #10
 489 000c 0135     		adds	r5, r5, #1
 490 000e 00FB0474 		mla	r4, r0, r4, r7
 491              	.LVL31:
 492 0012 1D60     		str	r5, [r3, #0]
 493              	.LVL32:
  55:../Libraries/AQ_Gps/nmea.h ****     ret=1;
 494              		.loc 3 55 0
 495 0014 0120     		movs	r0, #1
 496              	.LVL33:
 497              	.L34:
  52:../Libraries/AQ_Gps/nmea.h ****   while (((**s)>='0') && ((**s) <= '9')) {
 498              		.loc 3 52 0 discriminator 1
 499 0016 1D68     		ldr	r5, [r3, #0]
 500 0018 2E78     		ldrb	r6, [r5, #0]	@ zero_extendqisi2
 501 001a A6F13007 		sub	r7, r6, #48
 502 001e 5FFA87FC 		uxtb	ip, r7
 503 0022 BCF1090F 		cmp	ip, #9
 504 0026 F0D9     		bls	.L35
  56:../Libraries/AQ_Gps/nmea.h ****   }
  57:../Libraries/AQ_Gps/nmea.h **** 
  58:../Libraries/AQ_Gps/nmea.h ****   if ((**s)=='.') {
 505              		.loc 3 58 0
 506 0028 2E2E     		cmp	r6, #46
 507 002a 14D1     		bne	.L51
  59:../Libraries/AQ_Gps/nmea.h ****     // we have decimals
  60:../Libraries/AQ_Gps/nmea.h ****     (*s)++;
 508              		.loc 3 60 0
 509 002c 6E1C     		adds	r6, r5, #1
 510 002e 1E60     		str	r6, [r3, #0]
  61:../Libraries/AQ_Gps/nmea.h ****     while  (decimals--) {
 511              		.loc 3 61 0
 512 0030 0BE0     		b	.L50
 513              	.LVL34:
 514              	.L40:
  62:../Libraries/AQ_Gps/nmea.h ****       val *= 10;
  63:../Libraries/AQ_Gps/nmea.h ****       if (((**s)>='0') && ((**s) <= '9')) {
 515              		.loc 3 63 0
 516 0032 1D68     		ldr	r5, [r3, #0]
 517 0034 2E78     		ldrb	r6, [r5, #0]	@ zero_extendqisi2
  62:../Libraries/AQ_Gps/nmea.h ****       val *= 10;
 518              		.loc 3 62 0
 519 0036 0A27     		movs	r7, #10
 520              		.loc 3 63 0
 521 0038 303E     		subs	r6, r6, #48
  62:../Libraries/AQ_Gps/nmea.h ****       val *= 10;
 522              		.loc 3 62 0
 523 003a 7C43     		muls	r4, r7, r4
 524              	.LVL35:
 525              		.loc 3 63 0
 526 003c F7B2     		uxtb	r7, r6
 527 003e 092F     		cmp	r7, #9
 528 0040 03D8     		bhi	.L50
  64:../Libraries/AQ_Gps/nmea.h ****         val += (*((*s)++) - '0');
 529              		.loc 3 64 0
 530 0042 0135     		adds	r5, r5, #1
 531 0044 A419     		adds	r4, r4, r6
 532              	.LVL36:
 533 0046 1D60     		str	r5, [r3, #0]
 534              	.LVL37:
  65:../Libraries/AQ_Gps/nmea.h ****         ret = 1;
 535              		.loc 3 65 0
 536 0048 0120     		movs	r0, #1
 537              	.LVL38:
 538              	.L50:
  61:../Libraries/AQ_Gps/nmea.h ****     while  (decimals--) {
 539              		.loc 3 61 0 discriminator 1
 540 004a 12F1FF32 		adds	r2, r2, #-1
 541              	.LVL39:
 542 004e F0D2     		bcs	.L40
 543 0050 07E0     		b	.L52
 544              	.L42:
  66:../Libraries/AQ_Gps/nmea.h ****       }
  67:../Libraries/AQ_Gps/nmea.h ****     }
  68:../Libraries/AQ_Gps/nmea.h ****   }
  69:../Libraries/AQ_Gps/nmea.h ****   else {
  70:../Libraries/AQ_Gps/nmea.h ****     while  (decimals--) {
  71:../Libraries/AQ_Gps/nmea.h ****       val *= 10;
 545              		.loc 3 71 0
 546 0052 0A26     		movs	r6, #10
 547 0054 7443     		muls	r4, r6, r4
 548              	.LVL40:
 549              	.L51:
  70:../Libraries/AQ_Gps/nmea.h ****     while  (decimals--) {
 550              		.loc 3 70 0 discriminator 1
 551 0056 12F1FF32 		adds	r2, r2, #-1
 552              	.LVL41:
 553 005a FAD2     		bcs	.L42
 554 005c 01E0     		b	.L52
 555              	.LVL42:
 556              	.L44:
  72:../Libraries/AQ_Gps/nmea.h ****     }
  73:../Libraries/AQ_Gps/nmea.h ****   }
  74:../Libraries/AQ_Gps/nmea.h **** 
  75:../Libraries/AQ_Gps/nmea.h ****   // take off the decimals we did not care about
  76:../Libraries/AQ_Gps/nmea.h ****   while (((**s)>='0') && ((**s) <= '9')) {
  77:../Libraries/AQ_Gps/nmea.h ****     (*s)++;
 557              		.loc 3 77 0
 558 005e 0132     		adds	r2, r2, #1
 559 0060 1A60     		str	r2, [r3, #0]
 560              	.L52:
  76:../Libraries/AQ_Gps/nmea.h ****   while (((**s)>='0') && ((**s) <= '9')) {
 561              		.loc 3 76 0 discriminator 1
 562 0062 1A68     		ldr	r2, [r3, #0]
 563 0064 1578     		ldrb	r5, [r2, #0]	@ zero_extendqisi2
 564 0066 A5F1300C 		sub	ip, r5, #48
 565 006a 5FFA8CF6 		uxtb	r6, ip
 566 006e 092E     		cmp	r6, #9
 567 0070 F5D9     		bls	.L44
  78:../Libraries/AQ_Gps/nmea.h ****   }
  79:../Libraries/AQ_Gps/nmea.h **** 
  80:../Libraries/AQ_Gps/nmea.h ****   if ((**s) == ',') {
 568              		.loc 3 80 0
 569 0072 2C2D     		cmp	r5, #44
 570 0074 06D1     		bne	.L46
  81:../Libraries/AQ_Gps/nmea.h ****     (*s)++;
 571              		.loc 3 81 0
 572 0076 0132     		adds	r2, r2, #1
 573 0078 1A60     		str	r2, [r3, #0]
 574              	.LVL43:
  82:../Libraries/AQ_Gps/nmea.h ****   }
  83:../Libraries/AQ_Gps/nmea.h ****   else {
  84:../Libraries/AQ_Gps/nmea.h ****     ret=0; // no comma -> fail
  85:../Libraries/AQ_Gps/nmea.h ****   }
  86:../Libraries/AQ_Gps/nmea.h **** 
  87:../Libraries/AQ_Gps/nmea.h ****   if (ret && out) {
 575              		.loc 3 87 0
 576 007a 30B1     		cbz	r0, .L45
 577              		.loc 3 87 0 is_stmt 0 discriminator 1
 578 007c 21B1     		cbz	r1, .L47
  88:../Libraries/AQ_Gps/nmea.h ****     *out=val;
 579              		.loc 3 88 0 is_stmt 1
 580 007e 0C60     		str	r4, [r1, #0]
 581 0080 0120     		movs	r0, #1
 582              	.LVL44:
 583 0082 F0BD     		pop	{r4, r5, r6, r7, pc}
 584              	.L46:
  84:../Libraries/AQ_Gps/nmea.h ****     ret=0; // no comma -> fail
 585              		.loc 3 84 0
 586 0084 0020     		movs	r0, #0
 587 0086 F0BD     		pop	{r4, r5, r6, r7, pc}
 588              	.LVL45:
 589              	.L47:
  87:../Libraries/AQ_Gps/nmea.h ****   if (ret && out) {
 590              		.loc 3 87 0
 591 0088 0120     		movs	r0, #1
 592              	.LVL46:
 593              	.L45:
 594              	.LBE21:
  89:../Libraries/AQ_Gps/nmea.h ****   }
  90:../Libraries/AQ_Gps/nmea.h **** 
  91:../Libraries/AQ_Gps/nmea.h ****   return ret;
  92:../Libraries/AQ_Gps/nmea.h **** }
 595              		.loc 3 92 0
 596 008a F0BD     		pop	{r4, r5, r6, r7, pc}
 597              		.cfi_endproc
 598              	.LFE127:
 600              		.section	.text._Z12nmeaGetCoordPPcPl,"ax",%progbits
 601              		.align	1
 602              		.global	_Z12nmeaGetCoordPPcPl
 603              		.thumb
 604              		.thumb_func
 606              	_Z12nmeaGetCoordPPcPl:
 607              	.LFB128:
  93:../Libraries/AQ_Gps/nmea.h **** 
  94:../Libraries/AQ_Gps/nmea.h **** // Get coordinate from NMEA
  95:../Libraries/AQ_Gps/nmea.h **** // input: string "[d]ddmm.mmmm,[NESW],"
  96:../Libraries/AQ_Gps/nmea.h **** int nmeaGetCoord(char **s, long *outp) {
 608              		.loc 3 96 0
 609              		.cfi_startproc
 610              		@ args = 0, pretend = 0, frame = 8
 611              		@ frame_needed = 0, uses_anonymous_args = 0
 612              	.LVL47:
 613 0000 37B5     		push	{r0, r1, r2, r4, r5, lr}
 614              	.LCFI2:
 615              		.cfi_def_cfa_offset 24
 616              		.cfi_offset 14, -4
 617              		.cfi_offset 5, -8
 618              		.cfi_offset 4, -12
 619              		.cfi_offset 2, -16
 620              		.cfi_offset 1, -20
 621              		.cfi_offset 0, -24
 622              		.loc 3 96 0
 623 0002 0D46     		mov	r5, r1
 624              	.LBB22:
  97:../Libraries/AQ_Gps/nmea.h ****   long raw,deg;
  98:../Libraries/AQ_Gps/nmea.h ****   if (nmeaGetScaledInt(s,&raw,5)) {
 625              		.loc 3 98 0
 626 0004 0522     		movs	r2, #5
 627 0006 01A9     		add	r1, sp, #4
 628              	.LVL48:
 629              	.LBE22:
  96:../Libraries/AQ_Gps/nmea.h **** int nmeaGetCoord(char **s, long *outp) {
 630              		.loc 3 96 0
 631 0008 0446     		mov	r4, r0
 632              	.LBB23:
 633              		.loc 3 98 0
 634 000a FFF7FEFF 		bl	_Z16nmeaGetScaledIntPPcPli
 635              	.LVL49:
 636 000e 30B3     		cbz	r0, .L54
 637              	.LVL50:
  99:../Libraries/AQ_Gps/nmea.h ****     deg = raw / 10000000 * 10000000; // whole degrees
 638              		.loc 3 99 0
 639 0010 0198     		ldr	r0, [sp, #4]
 640 0012 184B     		ldr	r3, .L62
 641 0014 90FBF3F2 		sdiv	r2, r0, r3
 642 0018 5343     		muls	r3, r2, r3
 643              	.LVL51:
 100:../Libraries/AQ_Gps/nmea.h ****     raw = raw - deg;                 // minutes
 644              		.loc 3 100 0
 645 001a C11A     		subs	r1, r0, r3
 101:../Libraries/AQ_Gps/nmea.h ****     raw = raw * 100 / 60;            // minutes to fractional degrees
 646              		.loc 3 101 0
 647 001c 6422     		movs	r2, #100
 648 001e 4A43     		muls	r2, r1, r2
 649 0020 3C20     		movs	r0, #60
 650 0022 92FBF0F2 		sdiv	r2, r2, r0
 651              	.LVL52:
 102:../Libraries/AQ_Gps/nmea.h ****     deg = deg + raw;
 103:../Libraries/AQ_Gps/nmea.h ****     switch (**s) {
 652              		.loc 3 103 0
 653 0026 2168     		ldr	r1, [r4, #0]
 101:../Libraries/AQ_Gps/nmea.h ****     raw = raw * 100 / 60;            // minutes to fractional degrees
 654              		.loc 3 101 0
 655 0028 0192     		str	r2, [sp, #4]
 656              	.LVL53:
 102:../Libraries/AQ_Gps/nmea.h ****     deg = deg + raw;
 657              		.loc 3 102 0
 658 002a 9A18     		adds	r2, r3, r2
 659              	.LVL54:
 660              		.loc 3 103 0
 661 002c 0B78     		ldrb	r3, [r1, #0]	@ zero_extendqisi2
 662 002e 4E2B     		cmp	r3, #78
 663 0030 08D0     		beq	.L56
 664 0032 02D8     		bhi	.L58
 665 0034 452B     		cmp	r3, #69
 666 0036 07D1     		bne	.L55
 667 0038 04E0     		b	.L56
 668              	.L58:
 669 003a 532B     		cmp	r3, #83
 670 003c 01D0     		beq	.L57
 671 003e 572B     		cmp	r3, #87
 672 0040 02D1     		bne	.L55
 673              	.L57:
 104:../Libraries/AQ_Gps/nmea.h ****     case 'S':
 105:../Libraries/AQ_Gps/nmea.h ****     case 'W':
 106:../Libraries/AQ_Gps/nmea.h ****         deg=-deg;
 674              		.loc 3 106 0
 675 0042 5242     		negs	r2, r2
 676              	.LVL55:
 677              	.L56:
 107:../Libraries/AQ_Gps/nmea.h ****     case 'N':
 108:../Libraries/AQ_Gps/nmea.h ****     case 'E':
 109:../Libraries/AQ_Gps/nmea.h ****       (*s)++;
 678              		.loc 3 109 0
 679 0044 4B1C     		adds	r3, r1, #1
 680 0046 2360     		str	r3, [r4, #0]
 681              	.L55:
 110:../Libraries/AQ_Gps/nmea.h ****       break;
 111:../Libraries/AQ_Gps/nmea.h ****     default:
 112:../Libraries/AQ_Gps/nmea.h ****       break;
 113:../Libraries/AQ_Gps/nmea.h ****     }
 114:../Libraries/AQ_Gps/nmea.h ****     if ((**s) == ',') {
 682              		.loc 3 114 0
 683 0048 2368     		ldr	r3, [r4, #0]
 684 004a 93F800C0 		ldrb	ip, [r3, #0]	@ zero_extendqisi2
 685 004e BCF12C0F 		cmp	ip, #44
 686 0052 04D1     		bne	.L54
 115:../Libraries/AQ_Gps/nmea.h ****       (*s)++;
 687              		.loc 3 115 0
 688 0054 591C     		adds	r1, r3, #1
 689 0056 2160     		str	r1, [r4, #0]
 116:../Libraries/AQ_Gps/nmea.h ****       if (outp) *outp = deg;
 690              		.loc 3 116 0
 691 0058 45B1     		cbz	r5, .L60
 692              		.loc 3 116 0 is_stmt 0 discriminator 1
 693 005a 2A60     		str	r2, [r5, #0]
 694 005c 06E0     		b	.L60
 695              	.LVL56:
 696              	.L54:
 117:../Libraries/AQ_Gps/nmea.h ****       return 1;
 118:../Libraries/AQ_Gps/nmea.h ****     }
 119:../Libraries/AQ_Gps/nmea.h ****   }
 120:../Libraries/AQ_Gps/nmea.h ****   if ((**s) == ',') (*s)++; // consume the second comma if no number parsed
 697              		.loc 3 120 0 is_stmt 1
 698 005e 2368     		ldr	r3, [r4, #0]
 699 0060 1878     		ldrb	r0, [r3, #0]	@ zero_extendqisi2
 700 0062 2C28     		cmp	r0, #44
 701 0064 04D1     		bne	.L61
 702              		.loc 3 120 0 is_stmt 0 discriminator 1
 703 0066 5A1C     		adds	r2, r3, #1
 704 0068 2260     		str	r2, [r4, #0]
 705 006a 01E0     		b	.L61
 706              	.LVL57:
 707              	.L60:
 117:../Libraries/AQ_Gps/nmea.h ****       return 1;
 708              		.loc 3 117 0 is_stmt 1
 709 006c 0120     		movs	r0, #1
 710 006e 00E0     		b	.L59
 711              	.LVL58:
 712              	.L61:
 121:../Libraries/AQ_Gps/nmea.h ****   return 0;
 713              		.loc 3 121 0
 714 0070 0020     		movs	r0, #0
 715              	.L59:
 716              	.LBE23:
 122:../Libraries/AQ_Gps/nmea.h **** }
 717              		.loc 3 122 0
 718 0072 3EBD     		pop	{r1, r2, r3, r4, r5, pc}
 719              	.L63:
 720              		.align	2
 721              	.L62:
 722 0074 80969800 		.word	10000000
 723              		.cfi_endproc
 724              	.LFE128:
 726              		.section	.text._Z19nmeaProcessSentencev,"ax",%progbits
 727              		.align	1
 728              		.global	_Z19nmeaProcessSentencev
 729              		.thumb
 730              		.thumb_func
 732              	_Z19nmeaProcessSentencev:
 733              	.LFB129:
 123:../Libraries/AQ_Gps/nmea.h **** 
 124:../Libraries/AQ_Gps/nmea.h **** // process received NMEA sentence
 125:../Libraries/AQ_Gps/nmea.h **** void nmeaProcessSentence(){
 734              		.loc 3 125 0
 735              		.cfi_startproc
 736              		@ args = 0, pretend = 0, frame = 8
 737              		@ frame_needed = 0, uses_anonymous_args = 0
 738 0000 73B5     		push	{r0, r1, r4, r5, r6, lr}
 739              	.LCFI3:
 740              		.cfi_def_cfa_offset 24
 741              		.cfi_offset 14, -4
 742              		.cfi_offset 6, -8
 743              		.cfi_offset 5, -12
 744              		.cfi_offset 4, -16
 745              		.cfi_offset 1, -20
 746              		.cfi_offset 0, -24
 747              	.LBB24:
 126:../Libraries/AQ_Gps/nmea.h **** 
 127:../Libraries/AQ_Gps/nmea.h ****   gpsData.sentences++;
 748              		.loc 3 127 0
 749 0002 5C4E     		ldr	r6, .L90
 128:../Libraries/AQ_Gps/nmea.h ****   char *p = sentenceBuffer;
 750              		.loc 3 128 0
 751 0004 5C4D     		ldr	r5, .L90+4
 127:../Libraries/AQ_Gps/nmea.h ****   gpsData.sentences++;
 752              		.loc 3 127 0
 753 0006 306A     		ldr	r0, [r6, #32]
 754              	.LBB25:
 129:../Libraries/AQ_Gps/nmea.h ****   if (!strncmp(p,"GPGGA,",6)) {
 755              		.loc 3 129 0
 756 0008 5C49     		ldr	r1, .L90+8
 757              	.LBE25:
 128:../Libraries/AQ_Gps/nmea.h ****   char *p = sentenceBuffer;
 758              		.loc 3 128 0
 759 000a 0095     		str	r5, [sp, #0]
 760              	.LVL59:
 127:../Libraries/AQ_Gps/nmea.h ****   gpsData.sentences++;
 761              		.loc 3 127 0
 762 000c 431C     		adds	r3, r0, #1
 763 000e 3362     		str	r3, [r6, #32]
 764              	.LBB31:
 765              		.loc 3 129 0
 766 0010 2846     		mov	r0, r5
 767 0012 0622     		movs	r2, #6
 768 0014 FFF7FEFF 		bl	strncmp
 769 0018 3446     		mov	r4, r6
 770 001a 0028     		cmp	r0, #0
 771 001c 48D1     		bne	.L65
 772              	.LBB26:
 130:../Libraries/AQ_Gps/nmea.h ****     long work;
 131:../Libraries/AQ_Gps/nmea.h ****     p+=6;
 773              		.loc 3 131 0
 774 001e 02AE     		add	r6, sp, #8
 775 0020 0635     		adds	r5, r5, #6
 776 0022 46F8085D 		str	r5, [r6, #-8]!
 777              	.LVL60:
 132:../Libraries/AQ_Gps/nmea.h **** 
 133:../Libraries/AQ_Gps/nmea.h ****     gpsData.fixtime = (nmeaGetScaledInt(&p, &work, 3)) ? work : GPS_INVALID_FIX_TIME;
 778              		.loc 3 133 0
 779 0026 6846     		mov	r0, sp
 780 0028 01A9     		add	r1, sp, #4
 781 002a 0322     		movs	r2, #3
 782 002c FFF7FEFF 		bl	_Z16nmeaGetScaledIntPPcPli
 783 0030 08B1     		cbz	r0, .L79
 784              	.LVL61:
 785              		.loc 3 133 0 is_stmt 0 discriminator 1
 786 0032 019B     		ldr	r3, [sp, #4]
 787 0034 01E0     		b	.L66
 788              	.LVL62:
 789              	.L79:
 790              		.loc 3 133 0
 791 0036 4FF0FF33 		mov	r3, #-1
 792              	.LVL63:
 793              	.L66:
 794              		.loc 3 133 0 discriminator 3
 795 003a E361     		str	r3, [r4, #28]
 134:../Libraries/AQ_Gps/nmea.h ****     gpsData.lat = (nmeaGetCoord(&p,&work)) ? work : GPS_INVALID_ANGLE;
 796              		.loc 3 134 0 is_stmt 1 discriminator 3
 797 003c 6846     		mov	r0, sp
 798 003e 01A9     		add	r1, sp, #4
 799 0040 FFF7FEFF 		bl	_Z12nmeaGetCoordPPcPl
 800 0044 08B1     		cbz	r0, .L80
 801              		.loc 3 134 0 is_stmt 0 discriminator 1
 802 0046 019B     		ldr	r3, [sp, #4]
 803 0048 01E0     		b	.L67
 804              	.L80:
 805              		.loc 3 134 0
 806 004a 6FF00043 		mvn	r3, #-2147483648
 807              	.L67:
 808              		.loc 3 134 0 discriminator 3
 809 004e 2360     		str	r3, [r4, #0]
 135:../Libraries/AQ_Gps/nmea.h ****     gpsData.lon = (nmeaGetCoord(&p,&work)) ? work : GPS_INVALID_ANGLE;
 810              		.loc 3 135 0 is_stmt 1 discriminator 3
 811 0050 6846     		mov	r0, sp
 812 0052 01A9     		add	r1, sp, #4
 813 0054 FFF7FEFF 		bl	_Z12nmeaGetCoordPPcPl
 814 0058 08B1     		cbz	r0, .L81
 815              		.loc 3 135 0 is_stmt 0 discriminator 1
 816 005a 019B     		ldr	r3, [sp, #4]
 817 005c 01E0     		b	.L68
 818              	.L81:
 819              		.loc 3 135 0
 820 005e 6FF00043 		mvn	r3, #-2147483648
 821              	.L68:
 136:../Libraries/AQ_Gps/nmea.h ****     nmeaGetScaledInt(&p, NULL,0); //fix quality
 822              		.loc 3 136 0 is_stmt 1 discriminator 3
 823 0062 0021     		movs	r1, #0
 824 0064 0A46     		mov	r2, r1
 135:../Libraries/AQ_Gps/nmea.h ****     gpsData.lon = (nmeaGetCoord(&p,&work)) ? work : GPS_INVALID_ANGLE;
 825              		.loc 3 135 0 discriminator 3
 826 0066 6360     		str	r3, [r4, #4]
 827              		.loc 3 136 0 discriminator 3
 828 0068 6846     		mov	r0, sp
 829 006a FFF7FEFF 		bl	_Z16nmeaGetScaledIntPPcPli
 137:../Libraries/AQ_Gps/nmea.h ****     gpsData.sats = (nmeaGetScaledInt(&p,&work,0)) ? work : 0;
 830              		.loc 3 137 0 discriminator 3
 831 006e 6846     		mov	r0, sp
 832 0070 01A9     		add	r1, sp, #4
 833 0072 0022     		movs	r2, #0
 834 0074 FFF7FEFF 		bl	_Z16nmeaGetScaledIntPPcPli
 835 0078 08B1     		cbz	r0, .L69
 836              		.loc 3 137 0 is_stmt 0 discriminator 1
 837 007a 9DF80400 		ldrb	r0, [sp, #4]	@ zero_extendqisi2
 838              	.L69:
 839              		.loc 3 137 0 discriminator 3
 840 007e 84F82500 		strb	r0, [r4, #37]
 138:../Libraries/AQ_Gps/nmea.h ****     gpsData.accuracy = (nmeaGetScaledInt(&p,&work,3)) ? work : GPS_INVALID_ACCURACY; //hdop
 841              		.loc 3 138 0 is_stmt 1 discriminator 3
 842 0082 01A9     		add	r1, sp, #4
 843 0084 6846     		mov	r0, sp
 844 0086 0322     		movs	r2, #3
 845 0088 FFF7FEFF 		bl	_Z16nmeaGetScaledIntPPcPli
 846 008c 08B1     		cbz	r0, .L83
 847              		.loc 3 138 0 is_stmt 0 discriminator 1
 848 008e 019B     		ldr	r3, [sp, #4]
 849 0090 01E0     		b	.L70
 850              	.L83:
 851              		.loc 3 138 0
 852 0092 4FF0FF33 		mov	r3, #-1
 853              	.L70:
 854              		.loc 3 138 0 discriminator 3
 855 0096 6361     		str	r3, [r4, #20]
 139:../Libraries/AQ_Gps/nmea.h ****     gpsData.height = (nmeaGetScaledInt(&p,&work,3)) ? work : GPS_INVALID_ALTITUDE;
 856              		.loc 3 139 0 is_stmt 1 discriminator 3
 857 0098 6846     		mov	r0, sp
 858 009a 01A9     		add	r1, sp, #4
 859 009c 0322     		movs	r2, #3
 860 009e FFF7FEFF 		bl	_Z16nmeaGetScaledIntPPcPli
 861 00a2 08B1     		cbz	r0, .L84
 862              		.loc 3 139 0 is_stmt 0 discriminator 1
 863 00a4 019B     		ldr	r3, [sp, #4]
 864 00a6 01E0     		b	.L71
 865              	.L84:
 866              		.loc 3 139 0
 867 00a8 6FF00043 		mvn	r3, #-2147483648
 868              	.L71:
 869              		.loc 3 139 0 discriminator 3
 870 00ac 2361     		str	r3, [r4, #16]
 871 00ae 5FE0     		b	.L64
 872              	.LVL64:
 873              	.L65:
 874              	.LBE26:
 875              	.LBB27:
 140:../Libraries/AQ_Gps/nmea.h ****   }
 141:../Libraries/AQ_Gps/nmea.h ****   else if (!strncmp(p,"GPGSA,",6)) {
 876              		.loc 3 141 0 is_stmt 1
 877 00b0 0622     		movs	r2, #6
 878 00b2 2846     		mov	r0, r5
 879 00b4 3249     		ldr	r1, .L90+12
 880 00b6 FFF7FEFF 		bl	strncmp
 881 00ba 0246     		mov	r2, r0
 882 00bc 70B9     		cbnz	r0, .L73
 883              	.LBB28:
 142:../Libraries/AQ_Gps/nmea.h ****     long work;
 143:../Libraries/AQ_Gps/nmea.h ****     p+=6;
 144:../Libraries/AQ_Gps/nmea.h **** 
 145:../Libraries/AQ_Gps/nmea.h ****     p++; // validity info, ignored
 146:../Libraries/AQ_Gps/nmea.h ****     if (*(p++) != ',') {
 884              		.loc 3 146 0
 885 00be E979     		ldrb	r1, [r5, #7]	@ zero_extendqisi2
 886 00c0 0835     		adds	r5, r5, #8
 887 00c2 2C29     		cmp	r1, #44
 888 00c4 0095     		str	r5, [sp, #0]
 889 00c6 53D1     		bne	.L64
 147:../Libraries/AQ_Gps/nmea.h **** 	  return;
 148:../Libraries/AQ_Gps/nmea.h **** 	}
 149:../Libraries/AQ_Gps/nmea.h **** 
 150:../Libraries/AQ_Gps/nmea.h ****     if (nmeaGetScaledInt(&p,&work,0)) {
 890              		.loc 3 150 0
 891 00c8 6846     		mov	r0, sp
 892 00ca 01A9     		add	r1, sp, #4
 893 00cc FFF7FEFF 		bl	_Z16nmeaGetScaledIntPPcPli
 894 00d0 0028     		cmp	r0, #0
 895 00d2 4DD0     		beq	.L64
 896              	.LVL65:
 151:../Libraries/AQ_Gps/nmea.h ****       gpsData.state = work;
 897              		.loc 3 151 0
 898 00d4 019A     		ldr	r2, [sp, #4]
 899 00d6 86F82420 		strb	r2, [r6, #36]
 900 00da 49E0     		b	.L64
 901              	.LVL66:
 902              	.L73:
 903              	.LBE28:
 904              	.LBB29:
 152:../Libraries/AQ_Gps/nmea.h ****     }
 153:../Libraries/AQ_Gps/nmea.h ****   }
 154:../Libraries/AQ_Gps/nmea.h ****   else if (!strncmp(p,"GPRMC,",6)) {
 905              		.loc 3 154 0
 906 00dc 2846     		mov	r0, r5
 907 00de 2949     		ldr	r1, .L90+16
 908 00e0 0622     		movs	r2, #6
 909 00e2 FFF7FEFF 		bl	strncmp
 910 00e6 0028     		cmp	r0, #0
 911 00e8 42D1     		bne	.L64
 912              	.LBB30:
 155:../Libraries/AQ_Gps/nmea.h ****     long work;
 156:../Libraries/AQ_Gps/nmea.h ****     p+=6;
 913              		.loc 3 156 0
 914 00ea 02AB     		add	r3, sp, #8
 915 00ec 0635     		adds	r5, r5, #6
 916 00ee 43F8085D 		str	r5, [r3, #-8]!
 917              	.LVL67:
 157:../Libraries/AQ_Gps/nmea.h **** 
 158:../Libraries/AQ_Gps/nmea.h ****     gpsData.fixtime = (nmeaGetScaledInt(&p, &work, 3)) ? work : GPS_INVALID_FIX_TIME;
 918              		.loc 3 158 0
 919 00f2 6846     		mov	r0, sp
 920 00f4 01A9     		add	r1, sp, #4
 921 00f6 0322     		movs	r2, #3
 922 00f8 FFF7FEFF 		bl	_Z16nmeaGetScaledIntPPcPli
 923 00fc 08B1     		cbz	r0, .L85
 924              	.LVL68:
 925              		.loc 3 158 0 is_stmt 0 discriminator 1
 926 00fe 019B     		ldr	r3, [sp, #4]
 927 0100 01E0     		b	.L74
 928              	.LVL69:
 929              	.L85:
 930              		.loc 3 158 0
 931 0102 4FF0FF33 		mov	r3, #-1
 932              	.LVL70:
 933              	.L74:
 934              		.loc 3 158 0 discriminator 3
 935 0106 E361     		str	r3, [r4, #28]
 159:../Libraries/AQ_Gps/nmea.h **** 
 160:../Libraries/AQ_Gps/nmea.h ****     p++; // fix status - ignored
 936              		.loc 3 160 0 is_stmt 1 discriminator 3
 937 0108 009B     		ldr	r3, [sp, #0]
 938 010a 5A1C     		adds	r2, r3, #1
 939 010c 0092     		str	r2, [sp, #0]
 940              	.LVL71:
 161:../Libraries/AQ_Gps/nmea.h ****     if (*(p++) != ',') {
 941              		.loc 3 161 0 discriminator 3
 942 010e 5878     		ldrb	r0, [r3, #1]	@ zero_extendqisi2
 943 0110 991C     		adds	r1, r3, #2
 944 0112 2C28     		cmp	r0, #44
 945 0114 0091     		str	r1, [sp, #0]
 946 0116 2BD1     		bne	.L64
 162:../Libraries/AQ_Gps/nmea.h **** 	  return;
 163:../Libraries/AQ_Gps/nmea.h **** 	}
 164:../Libraries/AQ_Gps/nmea.h **** 
 165:../Libraries/AQ_Gps/nmea.h ****     gpsData.lat = (nmeaGetCoord(&p,&work)) ? work : GPS_INVALID_ANGLE;
 947              		.loc 3 165 0
 948 0118 6846     		mov	r0, sp
 949 011a 01A9     		add	r1, sp, #4
 950 011c FFF7FEFF 		bl	_Z12nmeaGetCoordPPcPl
 951 0120 08B1     		cbz	r0, .L86
 952              		.loc 3 165 0 is_stmt 0 discriminator 1
 953 0122 019B     		ldr	r3, [sp, #4]
 954 0124 01E0     		b	.L75
 955              	.L86:
 956              		.loc 3 165 0
 957 0126 6FF00043 		mvn	r3, #-2147483648
 958              	.L75:
 959              		.loc 3 165 0 discriminator 3
 960 012a 2360     		str	r3, [r4, #0]
 166:../Libraries/AQ_Gps/nmea.h ****     gpsData.lon = (nmeaGetCoord(&p,&work)) ? work : GPS_INVALID_ANGLE;
 961              		.loc 3 166 0 is_stmt 1 discriminator 3
 962 012c 6846     		mov	r0, sp
 963 012e 01A9     		add	r1, sp, #4
 964 0130 FFF7FEFF 		bl	_Z12nmeaGetCoordPPcPl
 965 0134 08B1     		cbz	r0, .L87
 966              		.loc 3 166 0 is_stmt 0 discriminator 1
 967 0136 019B     		ldr	r3, [sp, #4]
 968 0138 01E0     		b	.L76
 969              	.L87:
 970              		.loc 3 166 0
 971 013a 6FF00043 		mvn	r3, #-2147483648
 972              	.L76:
 973              		.loc 3 166 0 discriminator 3
 974 013e 6360     		str	r3, [r4, #4]
 167:../Libraries/AQ_Gps/nmea.h ****     gpsData.speed = (nmeaGetScaledInt(&p, &work, 3)) ? work * 5144 / 100000 : GPS_INVALID_SPEED; //
 975              		.loc 3 167 0 is_stmt 1 discriminator 3
 976 0140 6846     		mov	r0, sp
 977 0142 01A9     		add	r1, sp, #4
 978 0144 0322     		movs	r2, #3
 979 0146 FFF7FEFF 		bl	_Z16nmeaGetScaledIntPPcPli
 980 014a 38B1     		cbz	r0, .L88
 981              		.loc 3 167 0 is_stmt 0 discriminator 1
 982 014c 0198     		ldr	r0, [sp, #4]
 983 014e 0E49     		ldr	r1, .L90+20
 984 0150 41F21843 		movw	r3, #5144
 985 0154 5843     		muls	r0, r3, r0
 986 0156 90FBF1F3 		sdiv	r3, r0, r1
 987 015a 00E0     		b	.L77
 988              	.L88:
 989              		.loc 3 167 0
 990 015c 0B4B     		ldr	r3, .L90+24
 991              	.L77:
 992              		.loc 3 167 0 discriminator 3
 993 015e E360     		str	r3, [r4, #12]
 168:../Libraries/AQ_Gps/nmea.h ****     gpsData.course = (nmeaGetScaledInt(&p, &work, 3)) ? work : 0;
 994              		.loc 3 168 0 is_stmt 1 discriminator 3
 995 0160 6846     		mov	r0, sp
 996 0162 01A9     		add	r1, sp, #4
 997 0164 0322     		movs	r2, #3
 998 0166 FFF7FEFF 		bl	_Z16nmeaGetScaledIntPPcPli
 999 016a 00B1     		cbz	r0, .L78
 1000              		.loc 3 168 0 is_stmt 0 discriminator 1
 1001 016c 0198     		ldr	r0, [sp, #4]
 1002              	.L78:
 1003              		.loc 3 168 0 discriminator 3
 1004 016e A060     		str	r0, [r4, #8]
 1005              	.LVL72:
 1006              	.L64:
 1007              	.LBE30:
 1008              	.LBE29:
 1009              	.LBE27:
 1010              	.LBE31:
 1011              	.LBE24:
 169:../Libraries/AQ_Gps/nmea.h ****   }
 170:../Libraries/AQ_Gps/nmea.h **** }
 1012              		.loc 3 170 0 is_stmt 1
 1013 0170 7CBD     		pop	{r2, r3, r4, r5, r6, pc}
 1014              	.L91:
 1015 0172 00BF     		.align	2
 1016              	.L90:
 1017 0174 00000000 		.word	.LANCHOR8
 1018 0178 00000000 		.word	.LANCHOR9
 1019 017c 00000000 		.word	.LC0
 1020 0180 07000000 		.word	.LC1
 1021 0184 0E000000 		.word	.LC2
 1022 0188 A0860100 		.word	100000
 1023 018c FFC99A3B 		.word	999999999
 1024              		.cfi_endproc
 1025              	.LFE129:
 1027              		.section	.text._Z15nmeaProcessDatah,"ax",%progbits
 1028              		.align	1
 1029              		.global	_Z15nmeaProcessDatah
 1030              		.thumb
 1031              		.thumb_func
 1033              	_Z15nmeaProcessDatah:
 1034              	.LFB130:
 171:../Libraries/AQ_Gps/nmea.h **** 
 172:../Libraries/AQ_Gps/nmea.h **** int nmeaProcessData(unsigned char data) {
 1035              		.loc 3 172 0
 1036              		.cfi_startproc
 1037              		@ args = 0, pretend = 0, frame = 0
 1038              		@ frame_needed = 0, uses_anonymous_args = 0
 1039              	.LVL73:
 1040 0000 38B5     		push	{r3, r4, r5, lr}
 1041              	.LCFI4:
 1042              		.cfi_def_cfa_offset 16
 1043              		.cfi_offset 14, -4
 1044              		.cfi_offset 5, -8
 1045              		.cfi_offset 4, -12
 1046              		.cfi_offset 3, -16
 1047              	.LBB32:
 173:../Libraries/AQ_Gps/nmea.h ****   int parsed = 0;
 174:../Libraries/AQ_Gps/nmea.h **** 
 175:../Libraries/AQ_Gps/nmea.h ****   switch (gpsProcessDataState) {
 1048              		.loc 3 175 0
 1049 0002 284C     		ldr	r4, .L107
 1050 0004 2378     		ldrb	r3, [r4, #0]	@ zero_extendqisi2
 1051 0006 032B     		cmp	r3, #3
 1052 0008 48D8     		bhi	.L103
 1053 000a DFE803F0 		tbb	[pc, r3]
 1054              	.L98:
 1055 000e 02       		.byte	(.L94-.L98)/2
 1056 000f 0C       		.byte	(.L95-.L98)/2
 1057 0010 26       		.byte	(.L96-.L98)/2
 1058 0011 35       		.byte	(.L97-.L98)/2
 1059              		.align	1
 1060              	.L94:
 176:../Libraries/AQ_Gps/nmea.h ****   case WAIT_START:
 177:../Libraries/AQ_Gps/nmea.h ****     if (data == '$') {
 1061              		.loc 3 177 0
 1062 0012 2428     		cmp	r0, #36
 1063 0014 44D1     		bne	.L104
 178:../Libraries/AQ_Gps/nmea.h ****       gpsProcessDataState = READ;
 1064              		.loc 3 178 0
 1065 0016 0120     		movs	r0, #1
 1066              	.LVL74:
 179:../Libraries/AQ_Gps/nmea.h ****       sentenceLength = 0;
 1067              		.loc 3 179 0
 1068 0018 234A     		ldr	r2, .L107+4
 180:../Libraries/AQ_Gps/nmea.h ****       sentenceCalculatedXOR = 0;
 1069              		.loc 3 180 0
 1070 001a 2449     		ldr	r1, .L107+8
 178:../Libraries/AQ_Gps/nmea.h ****       gpsProcessDataState = READ;
 1071              		.loc 3 178 0
 1072 001c 2070     		strb	r0, [r4, #0]
 179:../Libraries/AQ_Gps/nmea.h ****       sentenceLength = 0;
 1073              		.loc 3 179 0
 1074 001e 0020     		movs	r0, #0
 1075 0020 1070     		strb	r0, [r2, #0]
 1076              		.loc 3 180 0
 1077 0022 0870     		strb	r0, [r1, #0]
 1078 0024 38BD     		pop	{r3, r4, r5, pc}
 1079              	.LVL75:
 1080              	.L95:
 181:../Libraries/AQ_Gps/nmea.h ****     }
 182:../Libraries/AQ_Gps/nmea.h ****     break;
 183:../Libraries/AQ_Gps/nmea.h **** 	
 184:../Libraries/AQ_Gps/nmea.h ****   case READ:
 185:../Libraries/AQ_Gps/nmea.h ****     if (data == '*') {
 1081              		.loc 3 185 0
 1082 0026 2A28     		cmp	r0, #42
 1083 0028 1F4B     		ldr	r3, .L107+4
 1084 002a 07D1     		bne	.L99
 186:../Libraries/AQ_Gps/nmea.h ****       sentenceBuffer[sentenceLength] = 0; // ensure NUL at end
 1085              		.loc 3 186 0
 1086 002c 93F800C0 		ldrb	ip, [r3, #0]	@ zero_extendqisi2
 1087 0030 1F49     		ldr	r1, .L107+12
 1088 0032 0020     		movs	r0, #0
 1089              	.LVL76:
 1090 0034 01F80C00 		strb	r0, [r1, ip]
 187:../Libraries/AQ_Gps/nmea.h ****       gpsProcessDataState = READ_CS1;
 1091              		.loc 3 187 0
 1092 0038 0223     		movs	r3, #2
 1093 003a 19E0     		b	.L106
 1094              	.LVL77:
 1095              	.L99:
 188:../Libraries/AQ_Gps/nmea.h ****     }
 189:../Libraries/AQ_Gps/nmea.h ****     else if (sentenceLength < SENTENCESIZE) {
 1096              		.loc 3 189 0
 1097 003c 1A78     		ldrb	r2, [r3, #0]	@ zero_extendqisi2
 1098 003e 4F2A     		cmp	r2, #79
 1099 0040 09D8     		bhi	.L100
 190:../Libraries/AQ_Gps/nmea.h ****       sentenceBuffer[sentenceLength++] = data;
 1100              		.loc 3 190 0
 1101 0042 1B49     		ldr	r1, .L107+12
 1102 0044 8854     		strb	r0, [r1, r2]
 1103 0046 0132     		adds	r2, r2, #1
 1104 0048 1A70     		strb	r2, [r3, #0]
 191:../Libraries/AQ_Gps/nmea.h ****       sentenceCalculatedXOR ^= data;
 1105              		.loc 3 191 0
 1106 004a 184B     		ldr	r3, .L107+8
 1107 004c 1978     		ldrb	r1, [r3, #0]	@ zero_extendqisi2
 1108 004e 80EA0102 		eor	r2, r0, r1
 1109 0052 1A70     		strb	r2, [r3, #0]
 1110 0054 22E0     		b	.L103
 1111              	.L100:
 192:../Libraries/AQ_Gps/nmea.h ****     }
 193:../Libraries/AQ_Gps/nmea.h ****     else {
 194:../Libraries/AQ_Gps/nmea.h ****       // overrun !!
 195:../Libraries/AQ_Gps/nmea.h ****       gpsProcessDataState=WAIT_START;
 1112              		.loc 3 195 0
 1113 0056 0020     		movs	r0, #0
 1114              	.LVL78:
 1115 0058 0CE0     		b	.L101
 1116              	.LVL79:
 1117              	.L96:
 196:../Libraries/AQ_Gps/nmea.h ****     }
 197:../Libraries/AQ_Gps/nmea.h ****     break;
 198:../Libraries/AQ_Gps/nmea.h **** 	
 199:../Libraries/AQ_Gps/nmea.h ****   case READ_CS1:
 200:../Libraries/AQ_Gps/nmea.h ****     if (data == nib2hex[sentenceCalculatedXOR>>4]) {
 1118              		.loc 3 200 0
 1119 005a 144B     		ldr	r3, .L107+8
 1120 005c 154A     		ldr	r2, .L107+16
 1121 005e 1978     		ldrb	r1, [r3, #0]	@ zero_extendqisi2
 1122 0060 0B11     		asrs	r3, r1, #4
 1123 0062 12F803C0 		ldrb	ip, [r2, r3]	@ zero_extendqisi2
 1124 0066 8445     		cmp	ip, r0
 1125 0068 4FF00000 		mov	r0, #0
 1126              	.LVL80:
 1127 006c 02D1     		bne	.L101
 201:../Libraries/AQ_Gps/nmea.h ****       gpsProcessDataState = READ_CS2;
 1128              		.loc 3 201 0
 1129 006e 0323     		movs	r3, #3
 1130              	.L106:
 1131 0070 2370     		strb	r3, [r4, #0]
 1132 0072 38BD     		pop	{r3, r4, r5, pc}
 1133              	.L101:
 202:../Libraries/AQ_Gps/nmea.h ****     }
 203:../Libraries/AQ_Gps/nmea.h ****     else {
 204:../Libraries/AQ_Gps/nmea.h ****       gpsProcessDataState=WAIT_START;
 1134              		.loc 3 204 0
 1135 0074 2070     		strb	r0, [r4, #0]
 1136 0076 38BD     		pop	{r3, r4, r5, pc}
 1137              	.LVL81:
 1138              	.L97:
 205:../Libraries/AQ_Gps/nmea.h ****     }
 206:../Libraries/AQ_Gps/nmea.h ****     break;
 207:../Libraries/AQ_Gps/nmea.h **** 	
 208:../Libraries/AQ_Gps/nmea.h ****   case READ_CS2:
 209:../Libraries/AQ_Gps/nmea.h ****     if (data == nib2hex[sentenceCalculatedXOR & 0xf]) {
 1139              		.loc 3 209 0
 1140 0078 0C4B     		ldr	r3, .L107+8
 1141 007a 0E4A     		ldr	r2, .L107+16
 1142 007c 93F800C0 		ldrb	ip, [r3, #0]	@ zero_extendqisi2
 1143 0080 0CF00F01 		and	r1, ip, #15
 1144 0084 555C     		ldrb	r5, [r2, r1]	@ zero_extendqisi2
 1145 0086 8542     		cmp	r5, r0
 1146 0088 4FF00005 		mov	r5, #0
 1147 008c 03D1     		bne	.L105
 1148              	.LVL82:
 210:../Libraries/AQ_Gps/nmea.h ****       parsed=1;
 211:../Libraries/AQ_Gps/nmea.h ****       nmeaProcessSentence();
 1149              		.loc 3 211 0
 1150 008e FFF7FEFF 		bl	_Z19nmeaProcessSentencev
 1151              	.LVL83:
 210:../Libraries/AQ_Gps/nmea.h ****       parsed=1;
 1152              		.loc 3 210 0
 1153 0092 0120     		movs	r0, #1
 1154 0094 00E0     		b	.L102
 1155              	.LVL84:
 1156              	.L105:
 173:../Libraries/AQ_Gps/nmea.h ****   int parsed = 0;
 1157              		.loc 3 173 0
 1158 0096 2846     		mov	r0, r5
 1159              	.LVL85:
 1160              	.L102:
 212:../Libraries/AQ_Gps/nmea.h ****     }
 213:../Libraries/AQ_Gps/nmea.h ****     else {
 214:../Libraries/AQ_Gps/nmea.h ****     }
 215:../Libraries/AQ_Gps/nmea.h ****     gpsProcessDataState=WAIT_START;
 1161              		.loc 3 215 0
 1162 0098 2570     		strb	r5, [r4, #0]
 216:../Libraries/AQ_Gps/nmea.h ****     break;
 1163              		.loc 3 216 0
 1164 009a 38BD     		pop	{r3, r4, r5, pc}
 1165              	.LVL86:
 1166              	.L103:
 173:../Libraries/AQ_Gps/nmea.h ****   int parsed = 0;
 1167              		.loc 3 173 0
 1168 009c 0020     		movs	r0, #0
 1169              	.LVL87:
 1170 009e 38BD     		pop	{r3, r4, r5, pc}
 1171              	.LVL88:
 1172              	.L104:
 1173 00a0 0020     		movs	r0, #0
 1174              	.LVL89:
 1175              	.LBE32:
 217:../Libraries/AQ_Gps/nmea.h ****   }
 218:../Libraries/AQ_Gps/nmea.h ****   return parsed;
 219:../Libraries/AQ_Gps/nmea.h **** }
 1176              		.loc 3 219 0
 1177 00a2 38BD     		pop	{r3, r4, r5, pc}
 1178              	.L108:
 1179              		.align	2
 1180              	.L107:
 1181 00a4 00000000 		.word	.LANCHOR0
 1182 00a8 00000000 		.word	.LANCHOR10
 1183 00ac 00000000 		.word	.LANCHOR11
 1184 00b0 00000000 		.word	.LANCHOR9
 1185 00b4 00000000 		.word	.LANCHOR12
 1186              		.cfi_endproc
 1187              	.LFE130:
 1189              		.section	.text._Z17initializeGpsDatav,"ax",%progbits
 1190              		.align	1
 1191              		.global	_Z17initializeGpsDatav
 1192              		.thumb
 1193              		.thumb_func
 1195              	_Z17initializeGpsDatav:
 1196              	.LFB131:
 1197              		.file 7 "../Libraries/AQ_Gps/GpsAdapter.h"
   1:../Libraries/AQ_Gps/GpsAdapter.h **** /*
   2:../Libraries/AQ_Gps/GpsAdapter.h ****   AeroQuad v3.0 - May 2011
   3:../Libraries/AQ_Gps/GpsAdapter.h ****   www.AeroQuad.com
   4:../Libraries/AQ_Gps/GpsAdapter.h ****   Copyright (c) 2011 Ted Carancho.  All rights reserved.
   5:../Libraries/AQ_Gps/GpsAdapter.h ****   An Open Source Arduino based multicopter.
   6:../Libraries/AQ_Gps/GpsAdapter.h **** 
   7:../Libraries/AQ_Gps/GpsAdapter.h ****   This program is free software: you can redistribute it and/or modify
   8:../Libraries/AQ_Gps/GpsAdapter.h ****   it under the terms of the GNU General Public License as published by
   9:../Libraries/AQ_Gps/GpsAdapter.h ****   the Free Software Foundation, either version 3 of the License, or
  10:../Libraries/AQ_Gps/GpsAdapter.h ****   (at your option) any later version.
  11:../Libraries/AQ_Gps/GpsAdapter.h **** 
  12:../Libraries/AQ_Gps/GpsAdapter.h ****   This program is distributed in the hope that it will be useful,
  13:../Libraries/AQ_Gps/GpsAdapter.h ****   but WITHOUT ANY WARRANTY; without even the implied warranty of
  14:../Libraries/AQ_Gps/GpsAdapter.h ****   MERCHANTABILITY or FITNESS FOR A PARTICULAR PURPOSE. See the
  15:../Libraries/AQ_Gps/GpsAdapter.h ****   GNU General Public License for more details.
  16:../Libraries/AQ_Gps/GpsAdapter.h **** 
  17:../Libraries/AQ_Gps/GpsAdapter.h ****   You should have received a copy of the GNU General Public License
  18:../Libraries/AQ_Gps/GpsAdapter.h ****   along with this program. If not, see <http://www.gnu.org/licenses/>.
  19:../Libraries/AQ_Gps/GpsAdapter.h **** */
  20:../Libraries/AQ_Gps/GpsAdapter.h **** 
  21:../Libraries/AQ_Gps/GpsAdapter.h **** #ifndef _AQ_GPS_ADAPTER_H_
  22:../Libraries/AQ_Gps/GpsAdapter.h **** #define _AQ_GPS_ADAPTER_H_
  23:../Libraries/AQ_Gps/GpsAdapter.h **** 
  24:../Libraries/AQ_Gps/GpsAdapter.h **** #include <GpsDataType.h>
  25:../Libraries/AQ_Gps/GpsAdapter.h **** 
  26:../Libraries/AQ_Gps/GpsAdapter.h **** struct gpsData gpsData; // This is accessed by the parser functions directly !
  27:../Libraries/AQ_Gps/GpsAdapter.h **** 
  28:../Libraries/AQ_Gps/GpsAdapter.h **** // default port
  29:../Libraries/AQ_Gps/GpsAdapter.h **** #ifndef GPS_SERIAL
  30:../Libraries/AQ_Gps/GpsAdapter.h ****   #ifdef AeroQuadSTM32
  31:../Libraries/AQ_Gps/GpsAdapter.h ****     #define GPS_SERIAL Serial2
  32:../Libraries/AQ_Gps/GpsAdapter.h ****   #else
  33:../Libraries/AQ_Gps/GpsAdapter.h ****     #define GPS_SERIAL Serial1
  34:../Libraries/AQ_Gps/GpsAdapter.h ****   #endif
  35:../Libraries/AQ_Gps/GpsAdapter.h **** #endif
  36:../Libraries/AQ_Gps/GpsAdapter.h **** 
  37:../Libraries/AQ_Gps/GpsAdapter.h **** // default to all protocols
  38:../Libraries/AQ_Gps/GpsAdapter.h **** #if (!defined(UseGPSUBLOX) && !defined(UseGPSNMEA) && !defined(UseGPSMTK16))
  39:../Libraries/AQ_Gps/GpsAdapter.h ****   #define UseGPSUBLOX
  40:../Libraries/AQ_Gps/GpsAdapter.h ****   #define UseGPSNMEA
  41:../Libraries/AQ_Gps/GpsAdapter.h ****   #define UseGPSMTK16
  42:../Libraries/AQ_Gps/GpsAdapter.h **** #endif
  43:../Libraries/AQ_Gps/GpsAdapter.h **** 
  44:../Libraries/AQ_Gps/GpsAdapter.h **** 
  45:../Libraries/AQ_Gps/GpsAdapter.h **** #ifdef UseGPSUBLOX
  46:../Libraries/AQ_Gps/GpsAdapter.h **** #include <ublox.h>
  47:../Libraries/AQ_Gps/GpsAdapter.h **** #endif
  48:../Libraries/AQ_Gps/GpsAdapter.h **** 
  49:../Libraries/AQ_Gps/GpsAdapter.h **** #ifdef UseGPSNMEA
  50:../Libraries/AQ_Gps/GpsAdapter.h **** #include <nmea.h>
  51:../Libraries/AQ_Gps/GpsAdapter.h **** #endif
  52:../Libraries/AQ_Gps/GpsAdapter.h **** 
  53:../Libraries/AQ_Gps/GpsAdapter.h **** #ifdef UseGPSMTK16
  54:../Libraries/AQ_Gps/GpsAdapter.h **** #include <mtk16.h>
  55:../Libraries/AQ_Gps/GpsAdapter.h **** #endif
  56:../Libraries/AQ_Gps/GpsAdapter.h **** 
  57:../Libraries/AQ_Gps/GpsAdapter.h **** #define MIN_NB_SATS_IN_USE 6
  58:../Libraries/AQ_Gps/GpsAdapter.h **** 
  59:../Libraries/AQ_Gps/GpsAdapter.h **** #define GPS2RAD (1.0/572957795.0)
  60:../Libraries/AQ_Gps/GpsAdapter.h **** #define RAD2DEG 57.2957795
  61:../Libraries/AQ_Gps/GpsAdapter.h **** 
  62:../Libraries/AQ_Gps/GpsAdapter.h **** GeodeticPosition currentPosition;
  63:../Libraries/AQ_Gps/GpsAdapter.h **** 
  64:../Libraries/AQ_Gps/GpsAdapter.h **** float cosLatitude = 0.7; // @ ~ 45 N/S, this will be adjusted to home loc
  65:../Libraries/AQ_Gps/GpsAdapter.h **** 
  66:../Libraries/AQ_Gps/GpsAdapter.h **** struct gpsType {
  67:../Libraries/AQ_Gps/GpsAdapter.h ****   const char *name;
  68:../Libraries/AQ_Gps/GpsAdapter.h ****   void (*init)();
  69:../Libraries/AQ_Gps/GpsAdapter.h ****   int  (*processData)(unsigned char);
  70:../Libraries/AQ_Gps/GpsAdapter.h **** };
  71:../Libraries/AQ_Gps/GpsAdapter.h **** 
  72:../Libraries/AQ_Gps/GpsAdapter.h **** byte  gpsConfigsSent;  // number of cfg msgs sent
  73:../Libraries/AQ_Gps/GpsAdapter.h **** byte  gpsConfigTimer;  // 0 = no more work, 1 = send now, >1 wait
  74:../Libraries/AQ_Gps/GpsAdapter.h **** 
  75:../Libraries/AQ_Gps/GpsAdapter.h **** const unsigned long gpsBaudRates[] = {4800L, 9600L, 19200L, 38400L, 57600L, 115200L};
  76:../Libraries/AQ_Gps/GpsAdapter.h **** const struct gpsType gpsTypes[] = {
  77:../Libraries/AQ_Gps/GpsAdapter.h **** #ifdef UseGPSUBLOX
  78:../Libraries/AQ_Gps/GpsAdapter.h ****   { "UBlox", ubloxInit, ubloxProcessData },
  79:../Libraries/AQ_Gps/GpsAdapter.h **** #endif
  80:../Libraries/AQ_Gps/GpsAdapter.h **** #ifdef UseGPSNMEA
  81:../Libraries/AQ_Gps/GpsAdapter.h ****   { "NMEA", nmeaInit, nmeaProcessData },
  82:../Libraries/AQ_Gps/GpsAdapter.h **** #endif
  83:../Libraries/AQ_Gps/GpsAdapter.h **** #ifdef UseGPSMTK16
  84:../Libraries/AQ_Gps/GpsAdapter.h ****   { "MTK16", mtk16Init, mtk16ProcessData },
  85:../Libraries/AQ_Gps/GpsAdapter.h **** #endif
  86:../Libraries/AQ_Gps/GpsAdapter.h **** };
  87:../Libraries/AQ_Gps/GpsAdapter.h **** 
  88:../Libraries/AQ_Gps/GpsAdapter.h **** #define GPS_NUMBAUDRATES (sizeof(gpsBaudRates)/sizeof(gpsBaudRates[0]))
  89:../Libraries/AQ_Gps/GpsAdapter.h **** #define GPS_NUMTYPES     (sizeof(gpsTypes)/sizeof(gpsTypes[0]))
  90:../Libraries/AQ_Gps/GpsAdapter.h **** 
  91:../Libraries/AQ_Gps/GpsAdapter.h **** // Timeout for GPS
  92:../Libraries/AQ_Gps/GpsAdapter.h **** #define GPS_MAXIDLE_DETECTING 200 // 2 seconds at 100Hz
  93:../Libraries/AQ_Gps/GpsAdapter.h **** #define GPS_MAXIDLE 500           // 5 seconds at 100Hz
  94:../Libraries/AQ_Gps/GpsAdapter.h **** 
  95:../Libraries/AQ_Gps/GpsAdapter.h **** void initializeGpsData() {
 1198              		.loc 7 95 0
 1199              		.cfi_startproc
 1200              		@ args = 0, pretend = 0, frame = 0
 1201              		@ frame_needed = 0, uses_anonymous_args = 0
 1202              		@ link register save eliminated.
  96:../Libraries/AQ_Gps/GpsAdapter.h **** 
  97:../Libraries/AQ_Gps/GpsAdapter.h ****   gpsData.lat = GPS_INVALID_ANGLE;
 1203              		.loc 7 97 0
 1204 0000 0A4B     		ldr	r3, .L110
  98:../Libraries/AQ_Gps/GpsAdapter.h ****   gpsData.lon = GPS_INVALID_ANGLE;
  99:../Libraries/AQ_Gps/GpsAdapter.h ****   gpsData.course = GPS_INVALID_ANGLE;
 100:../Libraries/AQ_Gps/GpsAdapter.h ****   gpsData.speed = GPS_INVALID_SPEED;
 1205              		.loc 7 100 0
 1206 0002 0B4A     		ldr	r2, .L110+4
  97:../Libraries/AQ_Gps/GpsAdapter.h ****   gpsData.lat = GPS_INVALID_ANGLE;
 1207              		.loc 7 97 0
 1208 0004 6FF00040 		mvn	r0, #-2147483648
 101:../Libraries/AQ_Gps/GpsAdapter.h ****   gpsData.height = GPS_INVALID_ALTITUDE;
 102:../Libraries/AQ_Gps/GpsAdapter.h ****   gpsData.accuracy = GPS_INVALID_ACCURACY;
 103:../Libraries/AQ_Gps/GpsAdapter.h ****   gpsData.fixage = GPS_INVALID_AGE;
 104:../Libraries/AQ_Gps/GpsAdapter.h ****   gpsData.state = GPS_DETECTING;
 1209              		.loc 7 104 0
 1210 0008 0021     		movs	r1, #0
 100:../Libraries/AQ_Gps/GpsAdapter.h ****   gpsData.speed = GPS_INVALID_SPEED;
 1211              		.loc 7 100 0
 1212 000a DA60     		str	r2, [r3, #12]
 102:../Libraries/AQ_Gps/GpsAdapter.h ****   gpsData.accuracy = GPS_INVALID_ACCURACY;
 1213              		.loc 7 102 0
 1214 000c 4FF0FF32 		mov	r2, #-1
  97:../Libraries/AQ_Gps/GpsAdapter.h ****   gpsData.lat = GPS_INVALID_ANGLE;
 1215              		.loc 7 97 0
 1216 0010 1860     		str	r0, [r3, #0]
  98:../Libraries/AQ_Gps/GpsAdapter.h ****   gpsData.lon = GPS_INVALID_ANGLE;
 1217              		.loc 7 98 0
 1218 0012 5860     		str	r0, [r3, #4]
  99:../Libraries/AQ_Gps/GpsAdapter.h ****   gpsData.course = GPS_INVALID_ANGLE;
 1219              		.loc 7 99 0
 1220 0014 9860     		str	r0, [r3, #8]
 101:../Libraries/AQ_Gps/GpsAdapter.h ****   gpsData.height = GPS_INVALID_ALTITUDE;
 1221              		.loc 7 101 0
 1222 0016 1861     		str	r0, [r3, #16]
 102:../Libraries/AQ_Gps/GpsAdapter.h ****   gpsData.accuracy = GPS_INVALID_ACCURACY;
 1223              		.loc 7 102 0
 1224 0018 5A61     		str	r2, [r3, #20]
 103:../Libraries/AQ_Gps/GpsAdapter.h ****   gpsData.fixage = GPS_INVALID_AGE;
 1225              		.loc 7 103 0
 1226 001a 9A61     		str	r2, [r3, #24]
 1227              		.loc 7 104 0
 1228 001c 83F82410 		strb	r1, [r3, #36]
 105:../Libraries/AQ_Gps/GpsAdapter.h ****   gpsData.sentences = 0;
 1229              		.loc 7 105 0
 1230 0020 1962     		str	r1, [r3, #32]
 106:../Libraries/AQ_Gps/GpsAdapter.h ****   gpsData.sats = 0;
 1231              		.loc 7 106 0
 1232 0022 83F82510 		strb	r1, [r3, #37]
 107:../Libraries/AQ_Gps/GpsAdapter.h ****   gpsData.fixtime = 0xFFFFFFFF;
 1233              		.loc 7 107 0
 1234 0026 DA61     		str	r2, [r3, #28]
 108:../Libraries/AQ_Gps/GpsAdapter.h **** }
 1235              		.loc 7 108 0
 1236 0028 7047     		bx	lr
 1237              	.L111:
 1238 002a 00BF     		.align	2
 1239              	.L110:
 1240 002c 00000000 		.word	.LANCHOR8
 1241 0030 FFC99A3B 		.word	999999999
 1242              		.cfi_endproc
 1243              	.LFE131:
 1245              		.section	.text._Z13gpsSendConfigv,"ax",%progbits
 1246              		.align	1
 1247              		.global	_Z13gpsSendConfigv
 1248              		.thumb
 1249              		.thumb_func
 1251              	_Z13gpsSendConfigv:
 1252              	.LFB132:
 109:../Libraries/AQ_Gps/GpsAdapter.h **** 
 110:../Libraries/AQ_Gps/GpsAdapter.h **** struct gpsConfigEntry gpsConfigEntries[] = {
 111:../Libraries/AQ_Gps/GpsAdapter.h **** #ifdef UseGPSMTK16
 112:../Libraries/AQ_Gps/GpsAdapter.h ****   MTK_CONFIGS,
 113:../Libraries/AQ_Gps/GpsAdapter.h **** #endif
 114:../Libraries/AQ_Gps/GpsAdapter.h **** #ifdef UseGPSUBLOX
 115:../Libraries/AQ_Gps/GpsAdapter.h ****   UBLOX_CONFIGS,
 116:../Libraries/AQ_Gps/GpsAdapter.h **** #endif
 117:../Libraries/AQ_Gps/GpsAdapter.h ****   { NULL, 0 }
 118:../Libraries/AQ_Gps/GpsAdapter.h **** };
 119:../Libraries/AQ_Gps/GpsAdapter.h **** 
 120:../Libraries/AQ_Gps/GpsAdapter.h **** // Send initialization strings to GPS one by one,
 121:../Libraries/AQ_Gps/GpsAdapter.h **** // it supports both string and binary packets
 122:../Libraries/AQ_Gps/GpsAdapter.h **** void gpsSendConfig() {
 1253              		.loc 7 122 0
 1254              		.cfi_startproc
 1255              		@ args = 0, pretend = 0, frame = 0
 1256              		@ frame_needed = 0, uses_anonymous_args = 0
 1257 0000 70B5     		push	{r4, r5, r6, lr}
 1258              	.LCFI5:
 1259              		.cfi_def_cfa_offset 16
 1260              		.cfi_offset 14, -4
 1261              		.cfi_offset 6, -8
 1262              		.cfi_offset 5, -12
 1263              		.cfi_offset 4, -16
 1264              	.LBB33:
 123:../Libraries/AQ_Gps/GpsAdapter.h **** 
 124:../Libraries/AQ_Gps/GpsAdapter.h ****   if (gpsConfigEntries[gpsConfigsSent].data) {
 1265              		.loc 7 124 0
 1266 0002 1A4C     		ldr	r4, .L122
 1267 0004 1A4D     		ldr	r5, .L122+4
 1268 0006 2378     		ldrb	r3, [r4, #0]	@ zero_extendqisi2
 1269 0008 55F83310 		ldr	r1, [r5, r3, lsl #3]
 1270 000c 2E46     		mov	r6, r5
 1271 000e 0029     		cmp	r1, #0
 1272 0010 2BD0     		beq	.L112
 1273              	.LBB34:
 1274              	.LBB35:
 125:../Libraries/AQ_Gps/GpsAdapter.h ****     if (gpsConfigEntries[gpsConfigsSent].len) {
 1275              		.loc 7 125 0
 1276 0012 05EBC300 		add	r0, r5, r3, lsl #3
 1277 0016 0379     		ldrb	r3, [r0, #4]	@ zero_extendqisi2
 1278 0018 4BB9     		cbnz	r3, .L119
 1279 001a 12E0     		b	.L121
 1280              	.LVL90:
 1281              	.L116:
 1282              	.LBB36:
 1283              	.LBB37:
 126:../Libraries/AQ_Gps/GpsAdapter.h ****       for (int i=0; i<gpsConfigEntries[gpsConfigsSent].len; i++) {
 127:../Libraries/AQ_Gps/GpsAdapter.h ****         GPS_SERIAL.write(gpsConfigEntries[gpsConfigsSent].data[i]);
 1284              		.loc 7 127 0 discriminator 2
 1285 001c 144B     		ldr	r3, .L122+4
 1286 001e 1548     		ldr	r0, .L122+8
 1287 0020 53F83210 		ldr	r1, [r3, r2, lsl #3]
 1288 0024 495D     		ldrb	r1, [r1, r5]	@ zero_extendqisi2
 1289 0026 FFF7FEFF 		bl	_ZN14HardwareSerial5writeEh
 126:../Libraries/AQ_Gps/GpsAdapter.h ****       for (int i=0; i<gpsConfigEntries[gpsConfigsSent].len; i++) {
 1290              		.loc 7 126 0 discriminator 2
 1291 002a 0135     		adds	r5, r5, #1
 1292              	.LVL91:
 1293 002c 00E0     		b	.L114
 1294              	.LVL92:
 1295              	.L119:
 1296              	.LBE37:
 1297              	.LBE36:
 125:../Libraries/AQ_Gps/GpsAdapter.h ****     if (gpsConfigEntries[gpsConfigsSent].len) {
 1298              		.loc 7 125 0
 1299 002e 0025     		movs	r5, #0
 1300              	.L114:
 1301              	.LVL93:
 1302              	.LBB39:
 1303              	.LBB38:
 126:../Libraries/AQ_Gps/GpsAdapter.h ****       for (int i=0; i<gpsConfigEntries[gpsConfigsSent].len; i++) {
 1304              		.loc 7 126 0 discriminator 1
 1305 0030 2278     		ldrb	r2, [r4, #0]	@ zero_extendqisi2
 1306 0032 06EBC200 		add	r0, r6, r2, lsl #3
 1307 0036 0379     		ldrb	r3, [r0, #4]	@ zero_extendqisi2
 1308 0038 9D42     		cmp	r5, r3
 1309 003a EFDB     		blt	.L116
 1310              	.LBE38:
 128:../Libraries/AQ_Gps/GpsAdapter.h ****       }
 129:../Libraries/AQ_Gps/GpsAdapter.h ****       gpsConfigTimer=gpsConfigEntries[gpsConfigsSent].len;
 1311              		.loc 7 129 0
 1312 003c 0E4A     		ldr	r2, .L122+12
 1313 003e 1370     		strb	r3, [r2, #0]
 1314 0040 0AE0     		b	.L117
 1315              	.LVL94:
 1316              	.L121:
 1317              	.LBE39:
 130:../Libraries/AQ_Gps/GpsAdapter.h ****     }
 131:../Libraries/AQ_Gps/GpsAdapter.h ****     else {
 132:../Libraries/AQ_Gps/GpsAdapter.h ****       GPS_SERIAL.print((char*)gpsConfigEntries[gpsConfigsSent].data);
 1318              		.loc 7 132 0
 1319 0042 0C48     		ldr	r0, .L122+8
 1320 0044 FFF7FEFF 		bl	_ZN5Print5printEPKc
 133:../Libraries/AQ_Gps/GpsAdapter.h ****       gpsConfigTimer=strlen((char*)gpsConfigEntries[gpsConfigsSent].data);
 1321              		.loc 7 133 0
 1322 0048 94F800C0 		ldrb	ip, [r4, #0]	@ zero_extendqisi2
 1323 004c 55F83C00 		ldr	r0, [r5, ip, lsl #3]
 1324 0050 FFF7FEFF 		bl	strlen
 1325 0054 0849     		ldr	r1, .L122+12
 1326 0056 0870     		strb	r0, [r1, #0]
 1327              	.L117:
 1328              	.LBE35:
 134:../Libraries/AQ_Gps/GpsAdapter.h ****     }
 135:../Libraries/AQ_Gps/GpsAdapter.h ****     if (gpsConfigTimer<10) {
 1329              		.loc 7 135 0
 1330 0058 074B     		ldr	r3, .L122+12
 1331 005a 1878     		ldrb	r0, [r3, #0]	@ zero_extendqisi2
 1332 005c 0928     		cmp	r0, #9
 1333 005e 01D8     		bhi	.L118
 136:../Libraries/AQ_Gps/GpsAdapter.h ****       gpsConfigTimer=10;
 1334              		.loc 7 136 0
 1335 0060 0A22     		movs	r2, #10
 1336 0062 1A70     		strb	r2, [r3, #0]
 1337              	.L118:
 137:../Libraries/AQ_Gps/GpsAdapter.h ****     }
 138:../Libraries/AQ_Gps/GpsAdapter.h ****     gpsConfigsSent++;
 1338              		.loc 7 138 0
 1339 0064 2178     		ldrb	r1, [r4, #0]	@ zero_extendqisi2
 1340 0066 4B1C     		adds	r3, r1, #1
 1341 0068 2370     		strb	r3, [r4, #0]
 1342              	.L112:
 1343 006a 70BD     		pop	{r4, r5, r6, pc}
 1344              	.L123:
 1345              		.align	2
 1346              	.L122:
 1347 006c 00000000 		.word	.LANCHOR13
 1348 0070 00000000 		.word	.LANCHOR14
 1349 0074 00000000 		.word	Serial2
 1350 0078 00000000 		.word	.LANCHOR15
 1351              	.LBE34:
 1352              	.LBE33:
 1353              		.cfi_endproc
 1354              	.LFE132:
 1356              		.section	.text._Z13initializeGpsv,"ax",%progbits
 1357              		.align	1
 1358              		.global	_Z13initializeGpsv
 1359              		.thumb
 1360              		.thumb_func
 1362              	_Z13initializeGpsv:
 1363              	.LFB133:
 139:../Libraries/AQ_Gps/GpsAdapter.h ****   }
 140:../Libraries/AQ_Gps/GpsAdapter.h **** }
 141:../Libraries/AQ_Gps/GpsAdapter.h **** 
 142:../Libraries/AQ_Gps/GpsAdapter.h **** // Initialize GPS subsystem (called once after powerup)
 143:../Libraries/AQ_Gps/GpsAdapter.h **** void initializeGps() {
 1364              		.loc 7 143 0
 1365              		.cfi_startproc
 1366              		@ args = 0, pretend = 0, frame = 0
 1367              		@ frame_needed = 0, uses_anonymous_args = 0
 1368 0000 38B5     		push	{r3, r4, r5, lr}
 1369              	.LCFI6:
 1370              		.cfi_def_cfa_offset 16
 1371              		.cfi_offset 14, -4
 1372              		.cfi_offset 5, -8
 1373              		.cfi_offset 4, -12
 1374              		.cfi_offset 3, -16
 144:../Libraries/AQ_Gps/GpsAdapter.h **** 
 145:../Libraries/AQ_Gps/GpsAdapter.h ****     gpsData.baudrate = 0;
 1375              		.loc 7 145 0
 1376 0002 0E4C     		ldr	r4, .L127
 146:../Libraries/AQ_Gps/GpsAdapter.h ****     GPS_SERIAL.begin(gpsBaudRates[gpsData.baudrate]);
 1377              		.loc 7 146 0
 1378 0004 0E48     		ldr	r0, .L127+4
 145:../Libraries/AQ_Gps/GpsAdapter.h ****     gpsData.baudrate = 0;
 1379              		.loc 7 145 0
 1380 0006 0025     		movs	r5, #0
 1381              		.loc 7 146 0
 1382 0008 4FF49651 		mov	r1, #4800
 145:../Libraries/AQ_Gps/GpsAdapter.h ****     gpsData.baudrate = 0;
 1383              		.loc 7 145 0
 1384 000c 84F82650 		strb	r5, [r4, #38]
 1385              		.loc 7 146 0
 1386 0010 FFF7FEFF 		bl	_ZN14HardwareSerial5beginEj
 147:../Libraries/AQ_Gps/GpsAdapter.h ****     for (gpsData.type=0; (gpsData.type < GPS_NUMTYPES); gpsData.type++) {
 1387              		.loc 7 147 0
 1388 0014 84F82750 		strb	r5, [r4, #39]
 1389 0018 06E0     		b	.L125
 1390              	.L126:
 148:../Libraries/AQ_Gps/GpsAdapter.h ****       gpsTypes[gpsData.type].init();
 1391              		.loc 7 148 0 discriminator 2
 1392 001a FFF7FEFF 		bl	_Z8nmeaInitv
 147:../Libraries/AQ_Gps/GpsAdapter.h ****     for (gpsData.type=0; (gpsData.type < GPS_NUMTYPES); gpsData.type++) {
 1393              		.loc 7 147 0 discriminator 2
 1394 001e 95F82700 		ldrb	r0, [r5, #39]	@ zero_extendqisi2
 1395 0022 431C     		adds	r3, r0, #1
 1396 0024 85F82730 		strb	r3, [r5, #39]
 1397              	.L125:
 147:../Libraries/AQ_Gps/GpsAdapter.h ****     for (gpsData.type=0; (gpsData.type < GPS_NUMTYPES); gpsData.type++) {
 1398              		.loc 7 147 0 is_stmt 0 discriminator 1
 1399 0028 94F82710 		ldrb	r1, [r4, #39]	@ zero_extendqisi2
 1400 002c 034D     		ldr	r5, .L127
 1401 002e 0029     		cmp	r1, #0
 1402 0030 F3D0     		beq	.L126
 149:../Libraries/AQ_Gps/GpsAdapter.h ****     }
 150:../Libraries/AQ_Gps/GpsAdapter.h ****     initializeGpsData();
 151:../Libraries/AQ_Gps/GpsAdapter.h ****  }
 1403              		.loc 7 151 0 is_stmt 1
 1404 0032 BDE83840 		pop	{r3, r4, r5, lr}
 150:../Libraries/AQ_Gps/GpsAdapter.h ****     initializeGpsData();
 1405              		.loc 7 150 0
 1406 0036 FFF7FEBF 		b	_Z17initializeGpsDatav
 1407              	.L128:
 1408 003a 00BF     		.align	2
 1409              	.L127:
 1410 003c 00000000 		.word	.LANCHOR8
 1411 0040 00000000 		.word	Serial2
 1412              		.cfi_endproc
 1413              	.LFE133:
 1415              		.section	.text._Z9updateGpsv,"ax",%progbits
 1416              		.align	1
 1417              		.global	_Z9updateGpsv
 1418              		.thumb
 1419              		.thumb_func
 1421              	_Z9updateGpsv:
 1422              	.LFB134:
 152:../Libraries/AQ_Gps/GpsAdapter.h **** 
 153:../Libraries/AQ_Gps/GpsAdapter.h **** // Read data from GPS, this should be called at 100Hz to make sure no data is lost
 154:../Libraries/AQ_Gps/GpsAdapter.h **** // due to overflowing serial input buffer
 155:../Libraries/AQ_Gps/GpsAdapter.h **** void updateGps() {
 1423              		.loc 7 155 0
 1424              		.cfi_startproc
 1425              		@ args = 0, pretend = 0, frame = 0
 1426              		@ frame_needed = 0, uses_anonymous_args = 0
 1427 0000 F8B5     		push	{r3, r4, r5, r6, r7, lr}
 1428              	.LCFI7:
 1429              		.cfi_def_cfa_offset 24
 1430              		.cfi_offset 14, -4
 1431              		.cfi_offset 7, -8
 1432              		.cfi_offset 6, -12
 1433              		.cfi_offset 5, -16
 1434              		.cfi_offset 4, -20
 1435              		.cfi_offset 3, -24
 1436              	.LBB40:
 156:../Libraries/AQ_Gps/GpsAdapter.h **** 
 157:../Libraries/AQ_Gps/GpsAdapter.h ****   gpsData.idlecount++;
 1437              		.loc 7 157 0
 1438 0002 404C     		ldr	r4, .L152
 1439 0004 A06A     		ldr	r0, [r4, #40]
 1440 0006 431C     		adds	r3, r0, #1
 1441 0008 A362     		str	r3, [r4, #40]
 158:../Libraries/AQ_Gps/GpsAdapter.h **** 
 159:../Libraries/AQ_Gps/GpsAdapter.h ****   while (GPS_SERIAL.available()) {
 1442              		.loc 7 159 0
 1443 000a 33E0     		b	.L151
 1444              	.L139:
 1445              	.LBB41:
 160:../Libraries/AQ_Gps/GpsAdapter.h ****     unsigned char c = GPS_SERIAL.read();
 1446              		.loc 7 160 0
 1447 000c 3E48     		ldr	r0, .L152+4
 1448 000e FFF7FEFF 		bl	_ZN14HardwareSerial4readEv
 161:../Libraries/AQ_Gps/GpsAdapter.h ****     int ret=0;
 162:../Libraries/AQ_Gps/GpsAdapter.h **** 
 163:../Libraries/AQ_Gps/GpsAdapter.h ****     // If we are detecting run all parsers, stopping if any reports success
 164:../Libraries/AQ_Gps/GpsAdapter.h ****     if (gpsData.state == GPS_DETECTING) {
 1449              		.loc 7 164 0
 1450 0012 94F82430 		ldrb	r3, [r4, #36]	@ zero_extendqisi2
 160:../Libraries/AQ_Gps/GpsAdapter.h ****     unsigned char c = GPS_SERIAL.read();
 1451              		.loc 7 160 0
 1452 0016 C5B2     		uxtb	r5, r0
 1453              	.LVL95:
 1454              		.loc 7 164 0
 1455 0018 C3B9     		cbnz	r3, .L131
 165:../Libraries/AQ_Gps/GpsAdapter.h ****       for (gpsData.type=0; (gpsData.type < GPS_NUMTYPES); gpsData.type++) {
 1456              		.loc 7 165 0
 1457 001a 3A4A     		ldr	r2, .L152
 1458 001c 82F82730 		strb	r3, [r2, #39]
 1459 0020 0EE0     		b	.L132
 1460              	.L135:
 166:../Libraries/AQ_Gps/GpsAdapter.h ****         ret = gpsTypes[gpsData.type].processData(c);
 1461              		.loc 7 166 0
 1462 0022 2846     		mov	r0, r5
 1463 0024 FFF7FEFF 		bl	_Z15nmeaProcessDatah
 1464              	.LVL96:
 167:../Libraries/AQ_Gps/GpsAdapter.h ****         if (ret) {
 1465              		.loc 7 167 0
 1466 0028 28B1     		cbz	r0, .L133
 168:../Libraries/AQ_Gps/GpsAdapter.h ****           // found GPS device start sending configuration
 169:../Libraries/AQ_Gps/GpsAdapter.h ****           gpsConfigsSent = 0;
 1467              		.loc 7 169 0
 1468 002a 384B     		ldr	r3, .L152+8
 170:../Libraries/AQ_Gps/GpsAdapter.h ****           gpsConfigTimer = 1;
 1469              		.loc 7 170 0
 1470 002c 384D     		ldr	r5, .L152+12
 1471              	.LVL97:
 169:../Libraries/AQ_Gps/GpsAdapter.h ****           gpsConfigsSent = 0;
 1472              		.loc 7 169 0
 1473 002e 1E70     		strb	r6, [r3, #0]
 1474              		.loc 7 170 0
 1475 0030 0121     		movs	r1, #1
 1476 0032 2970     		strb	r1, [r5, #0]
 1477              	.LVL98:
 1478 0034 0EE0     		b	.L134
 1479              	.LVL99:
 1480              	.L133:
 165:../Libraries/AQ_Gps/GpsAdapter.h ****       for (gpsData.type=0; (gpsData.type < GPS_NUMTYPES); gpsData.type++) {
 1481              		.loc 7 165 0
 1482 0036 97F82700 		ldrb	r0, [r7, #39]	@ zero_extendqisi2
 1483              	.LVL100:
 1484 003a 461C     		adds	r6, r0, #1
 1485 003c 87F82760 		strb	r6, [r7, #39]
 1486              	.L132:
 1487              	.LVL101:
 165:../Libraries/AQ_Gps/GpsAdapter.h ****       for (gpsData.type=0; (gpsData.type < GPS_NUMTYPES); gpsData.type++) {
 1488              		.loc 7 165 0 is_stmt 0 discriminator 1
 1489 0040 94F82760 		ldrb	r6, [r4, #39]	@ zero_extendqisi2
 1490 0044 2F4F     		ldr	r7, .L152
 1491 0046 002E     		cmp	r6, #0
 1492 0048 EBD0     		beq	.L135
 1493 004a 13E0     		b	.L151
 1494              	.L131:
 171:../Libraries/AQ_Gps/GpsAdapter.h ****           break;
 172:../Libraries/AQ_Gps/GpsAdapter.h ****         }
 173:../Libraries/AQ_Gps/GpsAdapter.h ****       }
 174:../Libraries/AQ_Gps/GpsAdapter.h ****     }
 175:../Libraries/AQ_Gps/GpsAdapter.h ****     else {
 176:../Libraries/AQ_Gps/GpsAdapter.h ****       // Normal operation just execute the detected parser
 177:../Libraries/AQ_Gps/GpsAdapter.h ****       ret = gpsTypes[gpsData.type].processData(c);
 1495              		.loc 7 177 0 is_stmt 1
 1496 004c 2846     		mov	r0, r5
 1497 004e FFF7FEFF 		bl	_Z15nmeaProcessDatah
 1498              	.LVL102:
 178:../Libraries/AQ_Gps/GpsAdapter.h ****     }
 179:../Libraries/AQ_Gps/GpsAdapter.h **** 
 180:../Libraries/AQ_Gps/GpsAdapter.h ****     // Upon a successfully parsed sentence, zero the idlecounter and update position data
 181:../Libraries/AQ_Gps/GpsAdapter.h ****     if (ret) {
 1499              		.loc 7 181 0
 1500 0052 78B1     		cbz	r0, .L151
 1501              	.LVL103:
 1502              	.L134:
 182:../Libraries/AQ_Gps/GpsAdapter.h ****       if (gpsData.state == GPS_DETECTING) {
 1503              		.loc 7 182 0
 1504 0054 94F82420 		ldrb	r2, [r4, #36]	@ zero_extendqisi2
 1505 0058 1AB9     		cbnz	r2, .L137
 183:../Libraries/AQ_Gps/GpsAdapter.h ****          gpsData.state = GPS_NOFIX; // make sure to lose detecting state (state may not have been u
 1506              		.loc 7 183 0
 1507 005a 2A4D     		ldr	r5, .L152
 1508 005c 0121     		movs	r1, #1
 1509 005e 85F82410 		strb	r1, [r5, #36]
 1510              	.L137:
 184:../Libraries/AQ_Gps/GpsAdapter.h ****       }
 185:../Libraries/AQ_Gps/GpsAdapter.h ****       gpsData.idlecount=0;
 186:../Libraries/AQ_Gps/GpsAdapter.h ****       currentPosition.latitude=gpsData.lat;
 1511              		.loc 7 186 0
 1512 0062 2C4B     		ldr	r3, .L152+16
 1513 0064 2168     		ldr	r1, [r4, #0]
 187:../Libraries/AQ_Gps/GpsAdapter.h ****       currentPosition.longitude=gpsData.lon;
 1514              		.loc 7 187 0
 1515 0066 6268     		ldr	r2, [r4, #4]
 188:../Libraries/AQ_Gps/GpsAdapter.h ****       currentPosition.altitude=gpsData.height;
 1516              		.loc 7 188 0
 1517 0068 2069     		ldr	r0, [r4, #16]
 186:../Libraries/AQ_Gps/GpsAdapter.h ****       currentPosition.latitude=gpsData.lat;
 1518              		.loc 7 186 0
 1519 006a 1960     		str	r1, [r3, #0]
 185:../Libraries/AQ_Gps/GpsAdapter.h ****       gpsData.idlecount=0;
 1520              		.loc 7 185 0
 1521 006c 0025     		movs	r5, #0
 1522 006e A562     		str	r5, [r4, #40]
 187:../Libraries/AQ_Gps/GpsAdapter.h ****       currentPosition.longitude=gpsData.lon;
 1523              		.loc 7 187 0
 1524 0070 5A60     		str	r2, [r3, #4]
 1525              		.loc 7 188 0
 1526 0072 9860     		str	r0, [r3, #8]
 1527              	.L151:
 1528              	.LBE41:
 159:../Libraries/AQ_Gps/GpsAdapter.h ****   while (GPS_SERIAL.available()) {
 1529              		.loc 7 159 0 discriminator 1
 1530 0074 2448     		ldr	r0, .L152+4
 1531 0076 FFF7FEFF 		bl	_ZN14HardwareSerial9availableEv
 1532 007a 0028     		cmp	r0, #0
 1533 007c C6D1     		bne	.L139
 189:../Libraries/AQ_Gps/GpsAdapter.h ****     }
 190:../Libraries/AQ_Gps/GpsAdapter.h ****   }
 191:../Libraries/AQ_Gps/GpsAdapter.h **** 
 192:../Libraries/AQ_Gps/GpsAdapter.h ****   // Schedule confg sending if needed
 193:../Libraries/AQ_Gps/GpsAdapter.h ****   if (gpsConfigTimer) {
 1534              		.loc 7 193 0
 1535 007e 244D     		ldr	r5, .L152+12
 1536 0080 2B78     		ldrb	r3, [r5, #0]	@ zero_extendqisi2
 1537 0082 33B1     		cbz	r3, .L140
 194:../Libraries/AQ_Gps/GpsAdapter.h ****     if (gpsConfigTimer==1) {
 1538              		.loc 7 194 0
 1539 0084 012B     		cmp	r3, #1
 1540 0086 01D1     		bne	.L141
 195:../Libraries/AQ_Gps/GpsAdapter.h ****       gpsSendConfig();
 1541              		.loc 7 195 0
 1542 0088 FFF7FEFF 		bl	_Z13gpsSendConfigv
 1543              	.L141:
 196:../Libraries/AQ_Gps/GpsAdapter.h ****     }
 197:../Libraries/AQ_Gps/GpsAdapter.h ****     gpsConfigTimer--;
 1544              		.loc 7 197 0
 1545 008c 2B78     		ldrb	r3, [r5, #0]	@ zero_extendqisi2
 1546 008e 581E     		subs	r0, r3, #1
 1547 0090 2870     		strb	r0, [r5, #0]
 1548              	.L140:
 198:../Libraries/AQ_Gps/GpsAdapter.h ****   }
 199:../Libraries/AQ_Gps/GpsAdapter.h **** 
 200:../Libraries/AQ_Gps/GpsAdapter.h ****   // Check for inactivity, we have two timeouts depending on scan status
 201:../Libraries/AQ_Gps/GpsAdapter.h ****   if (gpsData.idlecount > ((gpsData.state == GPS_DETECTING) ? GPS_MAXIDLE_DETECTING : GPS_MAXIDLE))
 1549              		.loc 7 201 0
 1550 0092 94F82420 		ldrb	r2, [r4, #36]	@ zero_extendqisi2
 1551 0096 A16A     		ldr	r1, [r4, #40]
 1552 0098 002A     		cmp	r2, #0
 1553 009a 14BF     		ite	ne
 1554 009c 4FF4FA70 		movne	r0, #500
 1555 00a0 C820     		moveq	r0, #200
 1556 00a2 8142     		cmp	r1, r0
 1557 00a4 2DD9     		bls	.L129
 202:../Libraries/AQ_Gps/GpsAdapter.h ****     gpsData.idlecount=0;
 1558              		.loc 7 202 0
 1559 00a6 0025     		movs	r5, #0
 1560 00a8 164B     		ldr	r3, .L152
 1561 00aa A562     		str	r5, [r4, #40]
 203:../Libraries/AQ_Gps/GpsAdapter.h ****     if (gpsData.state == GPS_DETECTING) {
 1562              		.loc 7 203 0
 1563 00ac 9AB9     		cbnz	r2, .L144
 204:../Libraries/AQ_Gps/GpsAdapter.h ****       // advance baudrate
 205:../Libraries/AQ_Gps/GpsAdapter.h ****       gpsData.baudrate++;
 1564              		.loc 7 205 0
 1565 00ae 93F82600 		ldrb	r0, [r3, #38]	@ zero_extendqisi2
 1566 00b2 411C     		adds	r1, r0, #1
 1567 00b4 5FFA81FE 		uxtb	lr, r1
 206:../Libraries/AQ_Gps/GpsAdapter.h ****       if (gpsData.baudrate >= GPS_NUMBAUDRATES) {
 1568              		.loc 7 206 0
 1569 00b8 BEF1050F 		cmp	lr, #5
 205:../Libraries/AQ_Gps/GpsAdapter.h ****       gpsData.baudrate++;
 1570              		.loc 7 205 0
 1571 00bc 83F826E0 		strb	lr, [r3, #38]
 207:../Libraries/AQ_Gps/GpsAdapter.h **** 	      gpsData.baudrate = 0;
 1572              		.loc 7 207 0
 1573 00c0 88BF     		it	hi
 1574 00c2 83F82620 		strbhi	r2, [r3, #38]
 208:../Libraries/AQ_Gps/GpsAdapter.h ****       }
 209:../Libraries/AQ_Gps/GpsAdapter.h ****       GPS_SERIAL.begin(gpsBaudRates[gpsData.baudrate]);
 1575              		.loc 7 209 0
 1576 00c6 94F826C0 		ldrb	ip, [r4, #38]	@ zero_extendqisi2
 1577 00ca 134A     		ldr	r2, .L152+20
 1578 00cc 0E48     		ldr	r0, .L152+4
 1579 00ce 52F82C10 		ldr	r1, [r2, ip, lsl #2]
 1580 00d2 FFF7FEFF 		bl	_ZN14HardwareSerial5beginEj
 1581              	.L144:
 210:../Libraries/AQ_Gps/GpsAdapter.h ****     }
 211:../Libraries/AQ_Gps/GpsAdapter.h **** 
 212:../Libraries/AQ_Gps/GpsAdapter.h ****     // ensure detection state (if we lost connection to GPS)
 213:../Libraries/AQ_Gps/GpsAdapter.h ****     gpsData.state = GPS_DETECTING;
 1582              		.loc 7 213 0
 1583 00d6 0023     		movs	r3, #0
 1584 00d8 84F82430 		strb	r3, [r4, #36]
 214:../Libraries/AQ_Gps/GpsAdapter.h **** 
 215:../Libraries/AQ_Gps/GpsAdapter.h ****     //  reinitialize all parsers
 216:../Libraries/AQ_Gps/GpsAdapter.h ****     for (gpsData.type=0; (gpsData.type < GPS_NUMTYPES); gpsData.type++) {
 1585              		.loc 7 216 0
 1586 00dc 84F82730 		strb	r3, [r4, #39]
 1587 00e0 06E0     		b	.L146
 1588              	.L147:
 217:../Libraries/AQ_Gps/GpsAdapter.h ****       gpsTypes[gpsData.type].init();
 1589              		.loc 7 217 0 discriminator 2
 1590 00e2 FFF7FEFF 		bl	_Z8nmeaInitv
 216:../Libraries/AQ_Gps/GpsAdapter.h ****     for (gpsData.type=0; (gpsData.type < GPS_NUMTYPES); gpsData.type++) {
 1591              		.loc 7 216 0 discriminator 2
 1592 00e6 95F82710 		ldrb	r1, [r5, #39]	@ zero_extendqisi2
 1593 00ea 4A1C     		adds	r2, r1, #1
 1594 00ec 85F82720 		strb	r2, [r5, #39]
 1595              	.L146:
 216:../Libraries/AQ_Gps/GpsAdapter.h ****     for (gpsData.type=0; (gpsData.type < GPS_NUMTYPES); gpsData.type++) {
 1596              		.loc 7 216 0 is_stmt 0 discriminator 1
 1597 00f0 94F82700 		ldrb	r0, [r4, #39]	@ zero_extendqisi2
 1598 00f4 034D     		ldr	r5, .L152
 1599 00f6 0028     		cmp	r0, #0
 1600 00f8 F3D0     		beq	.L147
 1601              	.LBE40:
 218:../Libraries/AQ_Gps/GpsAdapter.h ****     }
 219:../Libraries/AQ_Gps/GpsAdapter.h **** 
 220:../Libraries/AQ_Gps/GpsAdapter.h ****     // zero GPS state
 221:../Libraries/AQ_Gps/GpsAdapter.h ****     initializeGpsData();
 222:../Libraries/AQ_Gps/GpsAdapter.h ****   }
 223:../Libraries/AQ_Gps/GpsAdapter.h **** }
 1602              		.loc 7 223 0 is_stmt 1
 1603 00fa BDE8F840 		pop	{r3, r4, r5, r6, r7, lr}
 1604              	.LBB42:
 221:../Libraries/AQ_Gps/GpsAdapter.h ****     initializeGpsData();
 1605              		.loc 7 221 0
 1606 00fe FFF7FEBF 		b	_Z17initializeGpsDatav
 1607              	.L129:
 1608 0102 F8BD     		pop	{r3, r4, r5, r6, r7, pc}
 1609              	.L153:
 1610              		.align	2
 1611              	.L152:
 1612 0104 00000000 		.word	.LANCHOR8
 1613 0108 00000000 		.word	Serial2
 1614 010c 00000000 		.word	.LANCHOR13
 1615 0110 00000000 		.word	.LANCHOR15
 1616 0114 00000000 		.word	.LANCHOR16
 1617 0118 00000000 		.word	.LANCHOR17
 1618              	.LBE42:
 1619              		.cfi_endproc
 1620              	.LFE134:
 1622              		.section	.text._Z12haveAGpsLockv,"ax",%progbits
 1623              		.align	1
 1624              		.global	_Z12haveAGpsLockv
 1625              		.thumb
 1626              		.thumb_func
 1628              	_Z12haveAGpsLockv:
 1629              	.LFB135:
 224:../Libraries/AQ_Gps/GpsAdapter.h **** 
 225:../Libraries/AQ_Gps/GpsAdapter.h **** boolean haveAGpsLock() {
 1630              		.loc 7 225 0
 1631              		.cfi_startproc
 1632              		@ args = 0, pretend = 0, frame = 0
 1633              		@ frame_needed = 0, uses_anonymous_args = 0
 1634              		@ link register save eliminated.
 226:../Libraries/AQ_Gps/GpsAdapter.h ****   return (gpsData.state > GPS_NOFIX) && (gpsData.sats >= MIN_NB_SATS_IN_USE);
 1635              		.loc 7 226 0
 1636 0000 064B     		ldr	r3, .L157
 1637 0002 93F82420 		ldrb	r2, [r3, #36]	@ zero_extendqisi2
 1638 0006 012A     		cmp	r2, #1
 1639 0008 06D9     		bls	.L156
 225:../Libraries/AQ_Gps/GpsAdapter.h **** boolean haveAGpsLock() {
 1640              		.loc 7 225 0 discriminator 1
 1641 000a 93F82500 		ldrb	r0, [r3, #37]	@ zero_extendqisi2
 1642 000e 0528     		cmp	r0, #5
 1643 0010 94BF     		ite	ls
 1644 0012 0020     		movls	r0, #0
 1645 0014 0120     		movhi	r0, #1
 1646 0016 7047     		bx	lr
 1647              	.L156:
 1648              		.loc 7 226 0
 1649 0018 0020     		movs	r0, #0
 227:../Libraries/AQ_Gps/GpsAdapter.h **** }
 1650              		.loc 7 227 0
 1651 001a 7047     		bx	lr
 1652              	.L158:
 1653              		.align	2
 1654              	.L157:
 1655 001c 00000000 		.word	.LANCHOR8
 1656              		.cfi_endproc
 1657              	.LFE135:
 1659              		.section	.text._Z9getCoursev,"ax",%progbits
 1660              		.align	1
 1661              		.global	_Z9getCoursev
 1662              		.thumb
 1663              		.thumb_func
 1665              	_Z9getCoursev:
 1666              	.LFB136:
 228:../Libraries/AQ_Gps/GpsAdapter.h **** 
 229:../Libraries/AQ_Gps/GpsAdapter.h **** long getCourse() {
 1667              		.loc 7 229 0
 1668              		.cfi_startproc
 1669              		@ args = 0, pretend = 0, frame = 0
 1670              		@ frame_needed = 0, uses_anonymous_args = 0
 1671              		@ link register save eliminated.
 230:../Libraries/AQ_Gps/GpsAdapter.h ****   return gpsData.course / 1000; // to whole degrees
 1672              		.loc 7 230 0
 1673 0000 0349     		ldr	r1, .L160
 1674 0002 8868     		ldr	r0, [r1, #8]
 231:../Libraries/AQ_Gps/GpsAdapter.h **** }
 1675              		.loc 7 231 0
 1676 0004 4FF47A73 		mov	r3, #1000
 1677 0008 90FBF3F0 		sdiv	r0, r0, r3
 1678 000c 7047     		bx	lr
 1679              	.L161:
 1680 000e 00BF     		.align	2
 1681              	.L160:
 1682 0010 00000000 		.word	.LANCHOR8
 1683              		.cfi_endproc
 1684              	.LFE136:
 1686              		.section	.text._Z11getGpsSpeedv,"ax",%progbits
 1687              		.align	1
 1688              		.global	_Z11getGpsSpeedv
 1689              		.thumb
 1690              		.thumb_func
 1692              	_Z11getGpsSpeedv:
 1693              	.LFB137:
 232:../Libraries/AQ_Gps/GpsAdapter.h **** unsigned long getGpsSpeed() {
 1694              		.loc 7 232 0
 1695              		.cfi_startproc
 1696              		@ args = 0, pretend = 0, frame = 0
 1697              		@ frame_needed = 0, uses_anonymous_args = 0
 1698              		@ link register save eliminated.
 233:../Libraries/AQ_Gps/GpsAdapter.h ****   return gpsData.speed;
 234:../Libraries/AQ_Gps/GpsAdapter.h **** }
 1699              		.loc 7 234 0
 1700 0000 014B     		ldr	r3, .L163
 1701 0002 D868     		ldr	r0, [r3, #12]
 1702 0004 7047     		bx	lr
 1703              	.L164:
 1704 0006 00BF     		.align	2
 1705              	.L163:
 1706 0008 00000000 		.word	.LANCHOR8
 1707              		.cfi_endproc
 1708              	.LFE137:
 1710              		.section	.text._Z13getGpsFixTimev,"ax",%progbits
 1711              		.align	1
 1712              		.global	_Z13getGpsFixTimev
 1713              		.thumb
 1714              		.thumb_func
 1716              	_Z13getGpsFixTimev:
 1717              	.LFB138:
 235:../Libraries/AQ_Gps/GpsAdapter.h **** 
 236:../Libraries/AQ_Gps/GpsAdapter.h **** unsigned long getGpsFixTime() {
 1718              		.loc 7 236 0
 1719              		.cfi_startproc
 1720              		@ args = 0, pretend = 0, frame = 0
 1721              		@ frame_needed = 0, uses_anonymous_args = 0
 1722              		@ link register save eliminated.
 237:../Libraries/AQ_Gps/GpsAdapter.h ****   return gpsData.fixtime;
 238:../Libraries/AQ_Gps/GpsAdapter.h **** }
 1723              		.loc 7 238 0
 1724 0000 014B     		ldr	r3, .L166
 1725 0002 D869     		ldr	r0, [r3, #28]
 1726 0004 7047     		bx	lr
 1727              	.L167:
 1728 0006 00BF     		.align	2
 1729              	.L166:
 1730 0008 00000000 		.word	.LANCHOR8
 1731              		.cfi_endproc
 1732              	.LFE138:
 1734              		.section	.text._Z14getGpsAltitudev,"ax",%progbits
 1735              		.align	1
 1736              		.global	_Z14getGpsAltitudev
 1737              		.thumb
 1738              		.thumb_func
 1740              	_Z14getGpsAltitudev:
 1741              	.LFB139:
 239:../Libraries/AQ_Gps/GpsAdapter.h **** 
 240:../Libraries/AQ_Gps/GpsAdapter.h **** unsigned long getGpsAltitude() {
 1742              		.loc 7 240 0
 1743              		.cfi_startproc
 1744              		@ args = 0, pretend = 0, frame = 0
 1745              		@ frame_needed = 0, uses_anonymous_args = 0
 1746              		@ link register save eliminated.
 241:../Libraries/AQ_Gps/GpsAdapter.h ****   return gpsData.height;
 242:../Libraries/AQ_Gps/GpsAdapter.h **** }
 1747              		.loc 7 242 0
 1748 0000 014B     		ldr	r3, .L169
 1749 0002 1869     		ldr	r0, [r3, #16]
 1750 0004 7047     		bx	lr
 1751              	.L170:
 1752 0006 00BF     		.align	2
 1753              	.L169:
 1754 0008 00000000 		.word	.LANCHOR8
 1755              		.cfi_endproc
 1756              	.LFE139:
 1758              		.global	__aeabi_f2d
 1759              		.global	__aeabi_d2f
 1760              		.section	.text._Z21setProjectionLocation16GeodeticPosition,"ax",%progbits
 1761              		.align	1
 1762              		.global	_Z21setProjectionLocation16GeodeticPosition
 1763              		.thumb
 1764              		.thumb_func
 1766              	_Z21setProjectionLocation16GeodeticPosition:
 1767              	.LFB140:
 243:../Libraries/AQ_Gps/GpsAdapter.h **** 
 244:../Libraries/AQ_Gps/GpsAdapter.h **** void setProjectionLocation(struct GeodeticPosition pos) {
 1768              		.loc 7 244 0
 1769              		.cfi_startproc
 1770              		@ args = 0, pretend = 0, frame = 16
 1771              		@ frame_needed = 0, uses_anonymous_args = 0
 1772 0000 1FB5     		push	{r0, r1, r2, r3, r4, lr}
 1773              	.LCFI8:
 1774              		.cfi_def_cfa_offset 24
 1775              		.cfi_offset 14, -4
 1776              		.cfi_offset 4, -8
 1777              		.cfi_offset 3, -12
 1778              		.cfi_offset 2, -16
 1779              		.cfi_offset 1, -20
 1780              		.cfi_offset 0, -24
 1781              		.loc 7 244 0
 1782 0002 0DF1100C 		add	ip, sp, #16
 1783 0006 0CE90700 		stmdb	ip, {r0, r1, r2}
 245:../Libraries/AQ_Gps/GpsAdapter.h **** 
 246:../Libraries/AQ_Gps/GpsAdapter.h ****   cosLatitude = cos((float)pos.latitude * GPS2RAD);
 1784              		.loc 7 246 0
 1785 000a 9DED010A 		flds	s0, [sp, #4]	@ int
 1786 000e DFED097A 		flds	s15, .L172
 1787 0012 B8EEC07A 		fsitos	s14, s0
 1788 0016 67EE276A 		fmuls	s13, s14, s15
 1789 001a 16EE900A 		fmrs	r0, s13
 1790 001e FFF7FEFF 		bl	__aeabi_f2d
 1791 0022 FFF7FEFF 		bl	cos
 1792 0026 FFF7FEFF 		bl	__aeabi_d2f
 1793 002a 034B     		ldr	r3, .L172+4
 1794 002c 1860     		str	r0, [r3, #0]	@ float
 247:../Libraries/AQ_Gps/GpsAdapter.h **** }
 1795              		.loc 7 247 0
 1796 002e 05B0     		add	sp, sp, #20
 1797 0030 00BD     		pop	{pc}
 1798              	.L173:
 1799 0032 00BF     		.align	2
 1800              	.L172:
 1801 0034 50E0EF30 		.word	821026896
 1802 0038 00000000 		.word	.LANCHOR18
 1803              		.cfi_endproc
 1804              	.LFE140:
 1806              		.global	__aeabi_dmul
 1807              		.section	.text._Z25computeDistanceAndBearing16GeodeticPositionS_,"ax",%progbits
 1808              		.align	1
 1809              		.global	_Z25computeDistanceAndBearing16GeodeticPositionS_
 1810              		.thumb
 1811              		.thumb_func
 1813              	_Z25computeDistanceAndBearing16GeodeticPositionS_:
 1814              	.LFB141:
 248:../Libraries/AQ_Gps/GpsAdapter.h **** 
 249:../Libraries/AQ_Gps/GpsAdapter.h **** float gpsRawDistance = 0.0;
 250:../Libraries/AQ_Gps/GpsAdapter.h **** float gpsBearing = 0;
 251:../Libraries/AQ_Gps/GpsAdapter.h **** 
 252:../Libraries/AQ_Gps/GpsAdapter.h **** void computeDistanceAndBearing(struct GeodeticPosition p1, struct GeodeticPosition p2) {
 1815              		.loc 7 252 0
 1816              		.cfi_startproc
 1817              		@ args = 16, pretend = 8, frame = 16
 1818              		@ frame_needed = 0, uses_anonymous_args = 0
 1819 0000 82B0     		sub	sp, sp, #8
 1820              	.LCFI9:
 1821              		.cfi_def_cfa_offset 8
 1822 0002 30B5     		push	{r4, r5, lr}
 1823              	.LCFI10:
 1824              		.cfi_def_cfa_offset 20
 1825              		.cfi_offset 14, -12
 1826              		.cfi_offset 5, -16
 1827              		.cfi_offset 4, -20
 1828 0004 2DED028B 		fstmfdd	sp!, {d8}
 1829              	.LCFI11:
 1830              		.cfi_def_cfa_offset 28
 1831              		.cfi_offset 80, -28
 1832 0008 85B0     		sub	sp, sp, #20
 1833              	.LCFI12:
 1834              		.cfi_def_cfa_offset 48
 1835              		.loc 7 252 0
 1836 000a 04AC     		add	r4, sp, #16
 1837 000c 04E90700 		stmdb	r4, {r0, r1, r2}
 1838              	.LBB43:
 253:../Libraries/AQ_Gps/GpsAdapter.h **** 
 254:../Libraries/AQ_Gps/GpsAdapter.h ****   const float x = (float)(p2.longitude - p1.longitude) * GPS2RAD * cosLatitude;
 1839              		.loc 7 254 0
 1840 0010 0C99     		ldr	r1, [sp, #48]
 1841 0012 029A     		ldr	r2, [sp, #8]
 1842              	.LBE43:
 252:../Libraries/AQ_Gps/GpsAdapter.h **** void computeDistanceAndBearing(struct GeodeticPosition p1, struct GeodeticPosition p2) {
 1843              		.loc 7 252 0
 1844 0014 0B93     		str	r3, [sp, #44]
 1845              	.LBB44:
 1846              		.loc 7 254 0
 1847 0016 8A1A     		subs	r2, r1, r2
 1848 0018 06EE902A 		fmsr	s13, r2	@ int
 1849 001c DFED227A 		flds	s15, .L175+8
 1850 0020 B8EEE67A 		fsitos	s14, s13
 1851 0024 214A     		ldr	r2, .L175+12
 1852 0026 67EE276A 		fmuls	s13, s14, s15
 1853 002a 92ED007A 		flds	s14, [r2, #0]
 255:../Libraries/AQ_Gps/GpsAdapter.h ****   const float y = (float)(p2.latitude - p1.latitude) * GPS2RAD;
 1854              		.loc 7 255 0
 1855 002e 019A     		ldr	r2, [sp, #4]
 1856 0030 9B1A     		subs	r3, r3, r2
 254:../Libraries/AQ_Gps/GpsAdapter.h ****   const float x = (float)(p2.longitude - p1.longitude) * GPS2RAD * cosLatitude;
 1857              		.loc 7 254 0
 1858 0032 66EE878A 		fmuls	s17, s13, s14
 1859              	.LVL104:
 1860              		.loc 7 255 0
 1861 0036 06EE903A 		fmsr	s13, r3	@ int
 1862 003a B8EEE67A 		fsitos	s14, s13
 1863 003e 27EE278A 		fmuls	s16, s14, s15
 1864              	.LVL105:
 256:../Libraries/AQ_Gps/GpsAdapter.h ****   gpsRawDistance = sqrt(x*x+y*y);
 1865              		.loc 7 256 0
 1866 0042 68EE087A 		fmuls	s15, s16, s16
 1867 0046 48EEA87A 		fmacs	s15, s17, s17
 1868 004a 17EE900A 		fmrs	r0, s15
 1869 004e FFF7FEFF 		bl	__aeabi_f2d
 1870 0052 FFF7FEFF 		bl	sqrt
 1871 0056 FFF7FEFF 		bl	__aeabi_d2f
 1872 005a 154B     		ldr	r3, .L175+16
 1873 005c 1860     		str	r0, [r3, #0]	@ float
 257:../Libraries/AQ_Gps/GpsAdapter.h ****   gpsBearing = (RAD2DEG * atan2(x,y));
 1874              		.loc 7 257 0
 1875 005e 18EE900A 		fmrs	r0, s17
 1876 0062 FFF7FEFF 		bl	__aeabi_f2d
 1877 0066 0446     		mov	r4, r0
 1878 0068 18EE100A 		fmrs	r0, s16
 1879 006c 0D46     		mov	r5, r1
 1880 006e FFF7FEFF 		bl	__aeabi_f2d
 1881 0072 0246     		mov	r2, r0
 1882 0074 0B46     		mov	r3, r1
 1883 0076 2046     		mov	r0, r4
 1884 0078 2946     		mov	r1, r5
 1885 007a FFF7FEFF 		bl	atan2
 1886 007e 08A3     		adr	r3, .L175
 1887 0080 D3E90023 		ldrd	r2, [r3]
 1888 0084 FFF7FEFF 		bl	__aeabi_dmul
 1889 0088 FFF7FEFF 		bl	__aeabi_d2f
 1890 008c 094B     		ldr	r3, .L175+20
 1891 008e 1860     		str	r0, [r3, #0]	@ float
 1892              	.LBE44:
 258:../Libraries/AQ_Gps/GpsAdapter.h **** }
 1893              		.loc 7 258 0
 1894 0090 05B0     		add	sp, sp, #20
 1895 0092 BDEC028B 		fldmfdd	sp!, {d8}
 1896 0096 BDE83040 		pop	{r4, r5, lr}
 1897 009a 02B0     		add	sp, sp, #8
 1898 009c 7047     		bx	lr
 1899              	.L176:
 1900 009e 00BF     		.align	3
 1901              	.L175:
 1902 00a0 00000020 		.word	536870912
 1903 00a4 DCA54C40 		.word	1078765020
 1904 00a8 50E0EF30 		.word	821026896
 1905 00ac 00000000 		.word	.LANCHOR18
 1906 00b0 00000000 		.word	.LANCHOR19
 1907 00b4 00000000 		.word	.LANCHOR20
 1908              		.cfi_endproc
 1909              	.LFE141:
 1911              		.section	.text._Z16getDistanceMeterv,"ax",%progbits
 1912              		.align	1
 1913              		.global	_Z16getDistanceMeterv
 1914              		.thumb
 1915              		.thumb_func
 1917              	_Z16getDistanceMeterv:
 1918              	.LFB142:
 259:../Libraries/AQ_Gps/GpsAdapter.h **** 
 260:../Libraries/AQ_Gps/GpsAdapter.h **** float getDistanceMeter() {
 1919              		.loc 7 260 0
 1920              		.cfi_startproc
 1921              		@ args = 0, pretend = 0, frame = 0
 1922              		@ frame_needed = 0, uses_anonymous_args = 0
 1923              		@ link register save eliminated.
 261:../Libraries/AQ_Gps/GpsAdapter.h **** 
 262:../Libraries/AQ_Gps/GpsAdapter.h ****   return (gpsRawDistance * 6371009);
 1924              		.loc 7 262 0
 1925 0000 044B     		ldr	r3, .L178
 263:../Libraries/AQ_Gps/GpsAdapter.h **** }
 1926              		.loc 7 263 0
 1927 0002 DFED057A 		flds	s15, .L178+4
 262:../Libraries/AQ_Gps/GpsAdapter.h ****   return (gpsRawDistance * 6371009);
 1928              		.loc 7 262 0
 1929 0006 93ED007A 		flds	s14, [r3, #0]
 1930              		.loc 7 263 0
 1931 000a 67EE276A 		fmuls	s13, s14, s15
 1932 000e 16EE900A 		fmrs	r0, s13
 1933 0012 7047     		bx	lr
 1934              	.L179:
 1935              		.align	2
 1936              	.L178:
 1937 0014 00000000 		.word	.LANCHOR19
 1938 0018 826DC24A 		.word	1254256002
 1939              		.cfi_endproc
 1940              	.LFE142:
 1942              		.section	.text._Z15getDistanceFootv,"ax",%progbits
 1943              		.align	1
 1944              		.global	_Z15getDistanceFootv
 1945              		.thumb
 1946              		.thumb_func
 1948              	_Z15getDistanceFootv:
 1949              	.LFB143:
 264:../Libraries/AQ_Gps/GpsAdapter.h **** 
 265:../Libraries/AQ_Gps/GpsAdapter.h **** float getDistanceFoot() {
 1950              		.loc 7 265 0
 1951              		.cfi_startproc
 1952              		@ args = 0, pretend = 0, frame = 0
 1953              		@ frame_needed = 0, uses_anonymous_args = 0
 1954              		@ link register save eliminated.
 266:../Libraries/AQ_Gps/GpsAdapter.h **** 
 267:../Libraries/AQ_Gps/GpsAdapter.h ****   return (gpsRawDistance * 20903280);
 1955              		.loc 7 267 0
 1956 0000 044B     		ldr	r3, .L181
 268:../Libraries/AQ_Gps/GpsAdapter.h **** }
 1957              		.loc 7 268 0
 1958 0002 DFED057A 		flds	s15, .L181+4
 267:../Libraries/AQ_Gps/GpsAdapter.h ****   return (gpsRawDistance * 20903280);
 1959              		.loc 7 267 0
 1960 0006 93ED007A 		flds	s14, [r3, #0]
 1961              		.loc 7 268 0
 1962 000a 67EE276A 		fmuls	s13, s14, s15
 1963 000e 16EE900A 		fmrs	r0, s13
 1964 0012 7047     		bx	lr
 1965              	.L182:
 1966              		.align	2
 1967              	.L181:
 1968 0014 00000000 		.word	.LANCHOR19
 1969 0018 B87A9F4B 		.word	1268742840
 1970              		.cfi_endproc
 1971              	.LFE143:
 1973              		.section	.text._Z9updatePIDffP7PIDdata,"ax",%progbits
 1974              		.align	1
 1975              		.global	_Z9updatePIDffP7PIDdata
 1976              		.thumb
 1977              		.thumb_func
 1979              	_Z9updatePIDffP7PIDdata:
 1980              	.LFB144:
 1981              		.file 8 "C:/MinGW/msys/1.0/AeroQuad_v3.2/AeroQuad32/../AeroQuad/PID.h"
   1:C:/MinGW/msys/1.0/AeroQuad_v3.2/AeroQuad32/../AeroQuad\PID.h **** /*
   2:C:/MinGW/msys/1.0/AeroQuad_v3.2/AeroQuad32/../AeroQuad\PID.h ****   AeroQuad v3.0.1 - February 2012
   3:C:/MinGW/msys/1.0/AeroQuad_v3.2/AeroQuad32/../AeroQuad\PID.h ****   www.AeroQuad.com
   4:C:/MinGW/msys/1.0/AeroQuad_v3.2/AeroQuad32/../AeroQuad\PID.h ****   Copyright (c) 2012 Ted Carancho.  All rights reserved.
   5:C:/MinGW/msys/1.0/AeroQuad_v3.2/AeroQuad32/../AeroQuad\PID.h ****   An Open Source Arduino based multicopter.
   6:C:/MinGW/msys/1.0/AeroQuad_v3.2/AeroQuad32/../AeroQuad\PID.h ****  
   7:C:/MinGW/msys/1.0/AeroQuad_v3.2/AeroQuad32/../AeroQuad\PID.h ****   This program is free software: you can redistribute it and/or modify 
   8:C:/MinGW/msys/1.0/AeroQuad_v3.2/AeroQuad32/../AeroQuad\PID.h ****   it under the terms of the GNU General Public License as published by 
   9:C:/MinGW/msys/1.0/AeroQuad_v3.2/AeroQuad32/../AeroQuad\PID.h ****   the Free Software Foundation, either version 3 of the License, or 
  10:C:/MinGW/msys/1.0/AeroQuad_v3.2/AeroQuad32/../AeroQuad\PID.h ****   (at your option) any later version. 
  11:C:/MinGW/msys/1.0/AeroQuad_v3.2/AeroQuad32/../AeroQuad\PID.h **** 
  12:C:/MinGW/msys/1.0/AeroQuad_v3.2/AeroQuad32/../AeroQuad\PID.h ****   This program is distributed in the hope that it will be useful, 
  13:C:/MinGW/msys/1.0/AeroQuad_v3.2/AeroQuad32/../AeroQuad\PID.h ****   but WITHOUT ANY WARRANTY; without even the implied warranty of 
  14:C:/MinGW/msys/1.0/AeroQuad_v3.2/AeroQuad32/../AeroQuad\PID.h ****   MERCHANTABILITY or FITNESS FOR A PARTICULAR PURPOSE. See the 
  15:C:/MinGW/msys/1.0/AeroQuad_v3.2/AeroQuad32/../AeroQuad\PID.h ****   GNU General Public License for more details. 
  16:C:/MinGW/msys/1.0/AeroQuad_v3.2/AeroQuad32/../AeroQuad\PID.h **** 
  17:C:/MinGW/msys/1.0/AeroQuad_v3.2/AeroQuad32/../AeroQuad\PID.h ****   You should have received a copy of the GNU General Public License 
  18:C:/MinGW/msys/1.0/AeroQuad_v3.2/AeroQuad32/../AeroQuad\PID.h ****   along with this program. If not, see <http://www.gnu.org/licenses/>. 
  19:C:/MinGW/msys/1.0/AeroQuad_v3.2/AeroQuad32/../AeroQuad\PID.h **** */
  20:C:/MinGW/msys/1.0/AeroQuad_v3.2/AeroQuad32/../AeroQuad\PID.h **** 
  21:C:/MinGW/msys/1.0/AeroQuad_v3.2/AeroQuad32/../AeroQuad\PID.h **** #ifndef _AQ_PID_H_
  22:C:/MinGW/msys/1.0/AeroQuad_v3.2/AeroQuad32/../AeroQuad\PID.h **** #define _AQ_PID_H_
  23:C:/MinGW/msys/1.0/AeroQuad_v3.2/AeroQuad32/../AeroQuad\PID.h **** 
  24:C:/MinGW/msys/1.0/AeroQuad_v3.2/AeroQuad32/../AeroQuad\PID.h **** enum {
  25:C:/MinGW/msys/1.0/AeroQuad_v3.2/AeroQuad32/../AeroQuad\PID.h ****   RATE_XAXIS_PID_IDX = 0,
  26:C:/MinGW/msys/1.0/AeroQuad_v3.2/AeroQuad32/../AeroQuad\PID.h ****   RATE_YAXIS_PID_IDX,
  27:C:/MinGW/msys/1.0/AeroQuad_v3.2/AeroQuad32/../AeroQuad\PID.h ****   ZAXIS_PID_IDX,
  28:C:/MinGW/msys/1.0/AeroQuad_v3.2/AeroQuad32/../AeroQuad\PID.h ****   ATTITUDE_XAXIS_PID_IDX,
  29:C:/MinGW/msys/1.0/AeroQuad_v3.2/AeroQuad32/../AeroQuad\PID.h ****   ATTITUDE_YAXIS_PID_IDX,
  30:C:/MinGW/msys/1.0/AeroQuad_v3.2/AeroQuad32/../AeroQuad\PID.h ****   HEADING_HOLD_PID_IDX,
  31:C:/MinGW/msys/1.0/AeroQuad_v3.2/AeroQuad32/../AeroQuad\PID.h ****   ATTITUDE_GYRO_XAXIS_PID_IDX,
  32:C:/MinGW/msys/1.0/AeroQuad_v3.2/AeroQuad32/../AeroQuad\PID.h ****   ATTITUDE_GYRO_YAXIS_PID_IDX,
  33:C:/MinGW/msys/1.0/AeroQuad_v3.2/AeroQuad32/../AeroQuad\PID.h ****   #if defined AltitudeHoldBaro || defined AltitudeHoldRangeFinder
  34:C:/MinGW/msys/1.0/AeroQuad_v3.2/AeroQuad32/../AeroQuad\PID.h ****     BARO_ALTITUDE_HOLD_PID_IDX,
  35:C:/MinGW/msys/1.0/AeroQuad_v3.2/AeroQuad32/../AeroQuad\PID.h ****     ZDAMPENING_PID_IDX,
  36:C:/MinGW/msys/1.0/AeroQuad_v3.2/AeroQuad32/../AeroQuad\PID.h ****   #endif
  37:C:/MinGW/msys/1.0/AeroQuad_v3.2/AeroQuad32/../AeroQuad\PID.h ****   #if defined AltitudeHoldRangeFinder
  38:C:/MinGW/msys/1.0/AeroQuad_v3.2/AeroQuad32/../AeroQuad\PID.h ****     SONAR_ALTITUDE_HOLD_PID_IDX,
  39:C:/MinGW/msys/1.0/AeroQuad_v3.2/AeroQuad32/../AeroQuad\PID.h ****   #endif
  40:C:/MinGW/msys/1.0/AeroQuad_v3.2/AeroQuad32/../AeroQuad\PID.h ****   #if defined UseGPSNavigator
  41:C:/MinGW/msys/1.0/AeroQuad_v3.2/AeroQuad32/../AeroQuad\PID.h ****     GPSPITCH_PID_IDX,
  42:C:/MinGW/msys/1.0/AeroQuad_v3.2/AeroQuad32/../AeroQuad\PID.h ****     GPSROLL_PID_IDX,
  43:C:/MinGW/msys/1.0/AeroQuad_v3.2/AeroQuad32/../AeroQuad\PID.h ****     GPSYAW_PID_IDX,
  44:C:/MinGW/msys/1.0/AeroQuad_v3.2/AeroQuad32/../AeroQuad\PID.h ****   #endif    
  45:C:/MinGW/msys/1.0/AeroQuad_v3.2/AeroQuad32/../AeroQuad\PID.h **** 
  46:C:/MinGW/msys/1.0/AeroQuad_v3.2/AeroQuad32/../AeroQuad\PID.h ****   LAST_PID_IDX  // keep this definition at the end of this enum
  47:C:/MinGW/msys/1.0/AeroQuad_v3.2/AeroQuad32/../AeroQuad\PID.h **** };
  48:C:/MinGW/msys/1.0/AeroQuad_v3.2/AeroQuad32/../AeroQuad\PID.h **** 
  49:C:/MinGW/msys/1.0/AeroQuad_v3.2/AeroQuad32/../AeroQuad\PID.h **** //// PID Variables
  50:C:/MinGW/msys/1.0/AeroQuad_v3.2/AeroQuad32/../AeroQuad\PID.h **** struct PIDdata {
  51:C:/MinGW/msys/1.0/AeroQuad_v3.2/AeroQuad32/../AeroQuad\PID.h ****   float P, I, D;
  52:C:/MinGW/msys/1.0/AeroQuad_v3.2/AeroQuad32/../AeroQuad\PID.h ****   float lastError;
  53:C:/MinGW/msys/1.0/AeroQuad_v3.2/AeroQuad32/../AeroQuad\PID.h ****   // AKA experiments with PID
  54:C:/MinGW/msys/1.0/AeroQuad_v3.2/AeroQuad32/../AeroQuad\PID.h ****   float previousPIDTime;
  55:C:/MinGW/msys/1.0/AeroQuad_v3.2/AeroQuad32/../AeroQuad\PID.h ****   float integratedError;
  56:C:/MinGW/msys/1.0/AeroQuad_v3.2/AeroQuad32/../AeroQuad\PID.h ****   float windupGuard; // Thinking about having individual wind up guards for each PID
  57:C:/MinGW/msys/1.0/AeroQuad_v3.2/AeroQuad32/../AeroQuad\PID.h **** } PID[LAST_PID_IDX];
  58:C:/MinGW/msys/1.0/AeroQuad_v3.2/AeroQuad32/../AeroQuad\PID.h **** 
  59:C:/MinGW/msys/1.0/AeroQuad_v3.2/AeroQuad32/../AeroQuad\PID.h **** // This struct above declares the variable PID[] to hold each of the PID values for various functio
  60:C:/MinGW/msys/1.0/AeroQuad_v3.2/AeroQuad32/../AeroQuad\PID.h **** // The following constants are declared in AeroQuad.h
  61:C:/MinGW/msys/1.0/AeroQuad_v3.2/AeroQuad32/../AeroQuad\PID.h **** // ROLL = 0, PITCH = 1, YAW = 2 (used for Arcobatic Mode, gyros only)
  62:C:/MinGW/msys/1.0/AeroQuad_v3.2/AeroQuad32/../AeroQuad\PID.h **** // ROLLLEVEL = 3, PITCHLEVEL = 4, LEVELGYROROLL = 6, LEVELGYROPITCH = 7 (used for Stable Mode, acce
  63:C:/MinGW/msys/1.0/AeroQuad_v3.2/AeroQuad32/../AeroQuad\PID.h **** // HEADING = 5 (used for heading hold)
  64:C:/MinGW/msys/1.0/AeroQuad_v3.2/AeroQuad32/../AeroQuad\PID.h **** // ALTITUDE = 8 (used for altitude hold)
  65:C:/MinGW/msys/1.0/AeroQuad_v3.2/AeroQuad32/../AeroQuad\PID.h **** // ZDAMPENING = 9 (used in altitude hold to dampen vertical accelerations)
  66:C:/MinGW/msys/1.0/AeroQuad_v3.2/AeroQuad32/../AeroQuad\PID.h **** float windupGuard; // Read in from EEPROM
  67:C:/MinGW/msys/1.0/AeroQuad_v3.2/AeroQuad32/../AeroQuad\PID.h **** //// Modified from http://www.arduino.cc/playground/Main/BarebonesPIDForEspresso
  68:C:/MinGW/msys/1.0/AeroQuad_v3.2/AeroQuad32/../AeroQuad\PID.h **** float updatePID(float targetPosition, float currentPosition, struct PIDdata *PIDparameters) {
 1982              		.loc 8 68 0
 1983              		.cfi_startproc
 1984              		@ args = 0, pretend = 0, frame = 0
 1985              		@ frame_needed = 0, uses_anonymous_args = 0
 1986              		@ link register save eliminated.
 1987              	.LVL106:
 1988              	.LBB45:
  69:C:/MinGW/msys/1.0/AeroQuad_v3.2/AeroQuad32/../AeroQuad\PID.h **** 
  70:C:/MinGW/msys/1.0/AeroQuad_v3.2/AeroQuad32/../AeroQuad\PID.h ****   // AKA PID experiments
  71:C:/MinGW/msys/1.0/AeroQuad_v3.2/AeroQuad32/../AeroQuad\PID.h ****   const float deltaPIDTime = (currentTime - PIDparameters->previousPIDTime) / 1000000.0;
 1989              		.loc 8 71 0
 1990 0000 2A4B     		ldr	r3, .L190
 1991              	.LBE45:
  68:C:/MinGW/msys/1.0/AeroQuad_v3.2/AeroQuad32/../AeroQuad\PID.h **** float updatePID(float targetPosition, float currentPosition, struct PIDdata *PIDparameters) {
 1992              		.loc 8 68 0
 1993 0002 07EE101A 		fmsr	s14, r1
 1994              	.LBB46:
 1995              		.loc 8 71 0
 1996 0006 1968     		ldr	r1, [r3, #0]
 1997              	.LVL107:
 1998 0008 01EE101A 		fmsr	s2, r1	@ int
 1999 000c D2ED040A 		flds	s1, [r2, #16]
 2000 0010 B8EE410A 		fuitos	s0, s2
  72:C:/MinGW/msys/1.0/AeroQuad_v3.2/AeroQuad32/../AeroQuad\PID.h **** 
  73:C:/MinGW/msys/1.0/AeroQuad_v3.2/AeroQuad32/../AeroQuad\PID.h ****   PIDparameters->previousPIDTime = currentTime;  // AKA PID experiments
  74:C:/MinGW/msys/1.0/AeroQuad_v3.2/AeroQuad32/../AeroQuad\PID.h ****   float error = targetPosition - currentPosition;
 2001              		.loc 8 74 0
 2002 0014 07EE900A 		fmsr	s15, r0
  75:C:/MinGW/msys/1.0/AeroQuad_v3.2/AeroQuad32/../AeroQuad\PID.h **** 
  76:C:/MinGW/msys/1.0/AeroQuad_v3.2/AeroQuad32/../AeroQuad\PID.h ****   if (inFlight) {
 2003              		.loc 8 76 0
 2004 0018 2548     		ldr	r0, .L190+4
 2005              	.LVL108:
  71:C:/MinGW/msys/1.0/AeroQuad_v3.2/AeroQuad32/../AeroQuad\PID.h ****   const float deltaPIDTime = (currentTime - PIDparameters->previousPIDTime) / 1000000.0;
 2006              		.loc 8 71 0
 2007 001a 30EE606A 		fsubs	s12, s0, s1
 2008 001e DFED256A 		flds	s13, .L190+8
 2009              		.loc 8 76 0
 2010 0022 0378     		ldrb	r3, [r0, #0]	@ zero_extendqisi2
  71:C:/MinGW/msys/1.0/AeroQuad_v3.2/AeroQuad32/../AeroQuad\PID.h ****   const float deltaPIDTime = (currentTime - PIDparameters->previousPIDTime) / 1000000.0;
 2011              		.loc 8 71 0
 2012 0024 86EE265A 		fdivs	s10, s12, s13
 2013              	.LVL109:
  73:C:/MinGW/msys/1.0/AeroQuad_v3.2/AeroQuad32/../AeroQuad\PID.h ****   PIDparameters->previousPIDTime = currentTime;  // AKA PID experiments
 2014              		.loc 8 73 0
 2015 0028 82ED040A 		fsts	s0, [r2, #16]
  74:C:/MinGW/msys/1.0/AeroQuad_v3.2/AeroQuad32/../AeroQuad\PID.h ****   float error = targetPosition - currentPosition;
 2016              		.loc 8 74 0
 2017 002c 77EEC75A 		fsubs	s11, s15, s14
 2018              	.LVL110:
 2019              		.loc 8 76 0
 2020 0030 33B1     		cbz	r3, .L184
  77:C:/MinGW/msys/1.0/AeroQuad_v3.2/AeroQuad32/../AeroQuad\PID.h ****     PIDparameters->integratedError += error * deltaPIDTime;
 2021              		.loc 8 77 0
 2022 0032 D2ED051A 		flds	s3, [r2, #20]
 2023 0036 45EE851A 		fmacs	s3, s11, s10
 2024 003a C2ED051A 		fsts	s3, [r2, #20]
 2025 003e 01E0     		b	.L185
 2026              	.L184:
  78:C:/MinGW/msys/1.0/AeroQuad_v3.2/AeroQuad32/../AeroQuad\PID.h ****   }
  79:C:/MinGW/msys/1.0/AeroQuad_v3.2/AeroQuad32/../AeroQuad\PID.h ****   else {
  80:C:/MinGW/msys/1.0/AeroQuad_v3.2/AeroQuad32/../AeroQuad\PID.h ****     PIDparameters->integratedError = 0.0;
 2027              		.loc 8 80 0
 2028 0040 0020     		movs	r0, #0
 2029 0042 5061     		str	r0, [r2, #20]	@ float
 2030              	.L185:
  81:C:/MinGW/msys/1.0/AeroQuad_v3.2/AeroQuad32/../AeroQuad\PID.h ****   }
  82:C:/MinGW/msys/1.0/AeroQuad_v3.2/AeroQuad32/../AeroQuad\PID.h ****   PIDparameters->integratedError = constrain(PIDparameters->integratedError, -PIDparameters->windup
 2031              		.loc 8 82 0
 2032 0044 D2ED066A 		flds	s13, [r2, #24]
 2033 0048 92ED056A 		flds	s12, [r2, #20]
 2034 004c F1EE667A 		fnegs	s15, s13
 2035              	.LVL111:
 2036 0050 B4EEE76A 		fcmpes	s12, s15
 2037 0054 F1EE10FA 		fmstat
 2038 0058 08D4     		bmi	.L186
 2039              		.loc 8 82 0 is_stmt 0 discriminator 2
 2040 005a B4EE666A 		fcmps	s12, s13
 2041 005e F1EE10FA 		fmstat
 2042 0062 CCBF     		ite	gt
 2043 0064 F0EE667A 		fcpysgt	s15, s13
 2044 0068 F0EE467A 		fcpysle	s15, s12
 2045              	.L186:
  83:C:/MinGW/msys/1.0/AeroQuad_v3.2/AeroQuad32/../AeroQuad\PID.h ****   float dTerm = PIDparameters->D * (currentPosition - PIDparameters->lastError) / (deltaPIDTime * 1
 2046              		.loc 8 83 0 is_stmt 1 discriminator 6
 2047 006c D2ED034A 		flds	s9, [r2, #12]
 2048 0070 92ED024A 		flds	s8, [r2, #8]
 2049 0074 77EE643A 		fsubs	s7, s14, s9
 2050 0078 DFED0F2A 		flds	s5, .L190+12
 2051 007c 63EE843A 		fmuls	s7, s7, s8
 2052 0080 65EE222A 		fmuls	s5, s10, s5
  84:C:/MinGW/msys/1.0/AeroQuad_v3.2/AeroQuad32/../AeroQuad\PID.h ****   PIDparameters->lastError = currentPosition;
  85:C:/MinGW/msys/1.0/AeroQuad_v3.2/AeroQuad32/../AeroQuad\PID.h **** 
  86:C:/MinGW/msys/1.0/AeroQuad_v3.2/AeroQuad32/../AeroQuad\PID.h ****   return (PIDparameters->P * error) + (PIDparameters->I * PIDparameters->integratedError) + dTerm;
 2053              		.loc 8 86 0 discriminator 6
 2054 0084 92ED013A 		flds	s6, [r2, #4]
  83:C:/MinGW/msys/1.0/AeroQuad_v3.2/AeroQuad32/../AeroQuad\PID.h ****   float dTerm = PIDparameters->D * (currentPosition - PIDparameters->lastError) / (deltaPIDTime * 1
 2055              		.loc 8 83 0 discriminator 6
 2056 0088 C3EEA22A 		fdivs	s5, s7, s5
 2057              	.LVL112:
  84:C:/MinGW/msys/1.0/AeroQuad_v3.2/AeroQuad32/../AeroQuad\PID.h ****   PIDparameters->lastError = currentPosition;
 2058              		.loc 8 84 0 discriminator 6
 2059 008c 82ED037A 		fsts	s14, [r2, #12]
 2060              		.loc 8 86 0 discriminator 6
 2061 0090 92ED007A 		flds	s14, [r2, #0]
 2062              	.LVL113:
  82:C:/MinGW/msys/1.0/AeroQuad_v3.2/AeroQuad32/../AeroQuad\PID.h ****   PIDparameters->integratedError = constrain(PIDparameters->integratedError, -PIDparameters->windup
 2063              		.loc 8 82 0 discriminator 6
 2064 0094 C2ED057A 		fsts	s15, [r2, #20]
 2065              		.loc 8 86 0 discriminator 6
 2066 0098 67EE837A 		fmuls	s15, s15, s6
 2067 009c 45EE877A 		fmacs	s15, s11, s14
 2068              	.LBE46:
  87:C:/MinGW/msys/1.0/AeroQuad_v3.2/AeroQuad32/../AeroQuad\PID.h **** }
 2069              		.loc 8 87 0 discriminator 6
 2070 00a0 37EEA22A 		fadds	s4, s15, s5
 2071 00a4 12EE100A 		fmrs	r0, s4
 2072 00a8 7047     		bx	lr
 2073              	.L191:
 2074 00aa 00BF     		.align	2
 2075              	.L190:
 2076 00ac 00000000 		.word	.LANCHOR21
 2077 00b0 00000000 		.word	.LANCHOR22
 2078 00b4 00247449 		.word	1232348160
 2079 00b8 0000C842 		.word	1120403456
 2080              		.cfi_endproc
 2081              	.LFE144:
 2083              		.section	.text._Z17zeroIntegralErrorv,"ax",%progbits
 2084              		.align	1
 2085              		.global	_Z17zeroIntegralErrorv
 2086              		.thumb
 2087              		.thumb_func
 2089              	_Z17zeroIntegralErrorv:
 2090              	.LFB145:
  88:C:/MinGW/msys/1.0/AeroQuad_v3.2/AeroQuad32/../AeroQuad\PID.h **** 
  89:C:/MinGW/msys/1.0/AeroQuad_v3.2/AeroQuad32/../AeroQuad\PID.h **** void zeroIntegralError() __attribute__ ((noinline));
  90:C:/MinGW/msys/1.0/AeroQuad_v3.2/AeroQuad32/../AeroQuad\PID.h **** void zeroIntegralError() {
 2091              		.loc 8 90 0
 2092              		.cfi_startproc
 2093              		@ args = 0, pretend = 0, frame = 0
 2094              		@ frame_needed = 0, uses_anonymous_args = 0
 2095              		@ link register save eliminated.
 2096              	.LVL114:
 2097              	.LBB47:
  91:C:/MinGW/msys/1.0/AeroQuad_v3.2/AeroQuad32/../AeroQuad\PID.h ****   for (byte axis = 0; axis <= ATTITUDE_YAXIS_PID_IDX; axis++) {
  92:C:/MinGW/msys/1.0/AeroQuad_v3.2/AeroQuad32/../AeroQuad\PID.h ****     PID[axis].integratedError = 0;
  93:C:/MinGW/msys/1.0/AeroQuad_v3.2/AeroQuad32/../AeroQuad\PID.h ****     PID[axis].previousPIDTime = currentTime;
 2098              		.loc 8 93 0
 2099 0000 0C49     		ldr	r1, .L193
  92:C:/MinGW/msys/1.0/AeroQuad_v3.2/AeroQuad32/../AeroQuad\PID.h ****     PID[axis].integratedError = 0;
 2100              		.loc 8 92 0
 2101 0002 0D4B     		ldr	r3, .L193+4
 2102              		.loc 8 93 0
 2103 0004 0868     		ldr	r0, [r1, #0]
 2104 0006 07EE100A 		fmsr	s14, r0	@ int
 2105 000a F8EE477A 		fuitos	s15, s14
  92:C:/MinGW/msys/1.0/AeroQuad_v3.2/AeroQuad32/../AeroQuad\PID.h ****     PID[axis].integratedError = 0;
 2106              		.loc 8 92 0
 2107 000e 0022     		movs	r2, #0
 2108 0010 5A61     		str	r2, [r3, #20]	@ float
 2109              		.loc 8 93 0
 2110 0012 C3ED047A 		fsts	s15, [r3, #16]
 2111              	.LVL115:
  92:C:/MinGW/msys/1.0/AeroQuad_v3.2/AeroQuad32/../AeroQuad\PID.h ****     PID[axis].integratedError = 0;
 2112              		.loc 8 92 0
 2113 0016 1A63     		str	r2, [r3, #48]	@ float
 2114              		.loc 8 93 0
 2115 0018 C3ED0B7A 		fsts	s15, [r3, #44]
 2116              	.LVL116:
  92:C:/MinGW/msys/1.0/AeroQuad_v3.2/AeroQuad32/../AeroQuad\PID.h ****     PID[axis].integratedError = 0;
 2117              		.loc 8 92 0
 2118 001c DA64     		str	r2, [r3, #76]	@ float
 2119              		.loc 8 93 0
 2120 001e C3ED127A 		fsts	s15, [r3, #72]
 2121              	.LVL117:
  92:C:/MinGW/msys/1.0/AeroQuad_v3.2/AeroQuad32/../AeroQuad\PID.h ****     PID[axis].integratedError = 0;
 2122              		.loc 8 92 0
 2123 0022 9A66     		str	r2, [r3, #104]	@ float
 2124              		.loc 8 93 0
 2125 0024 C3ED197A 		fsts	s15, [r3, #100]
 2126              	.LVL118:
  92:C:/MinGW/msys/1.0/AeroQuad_v3.2/AeroQuad32/../AeroQuad\PID.h ****     PID[axis].integratedError = 0;
 2127              		.loc 8 92 0
 2128 0028 C3F88420 		str	r2, [r3, #132]	@ float
 2129              		.loc 8 93 0
 2130 002c C3ED207A 		fsts	s15, [r3, #128]
 2131              	.LVL119:
 2132              	.LBE47:
  94:C:/MinGW/msys/1.0/AeroQuad_v3.2/AeroQuad32/../AeroQuad\PID.h ****   }
  95:C:/MinGW/msys/1.0/AeroQuad_v3.2/AeroQuad32/../AeroQuad\PID.h **** }
 2133              		.loc 8 95 0
 2134 0030 7047     		bx	lr
 2135              	.L194:
 2136 0032 00BF     		.align	2
 2137              	.L193:
 2138 0034 00000000 		.word	.LANCHOR21
 2139 0038 00000000 		.word	.LANCHOR23
 2140              		.cfi_endproc
 2141              	.LFE145:
 2143              		.section	.text._Z18computeFourthOrderfP15fourthOrderData,"ax",%progbits
 2144              		.align	1
 2145              		.global	_Z18computeFourthOrderfP15fourthOrderData
 2146              		.thumb
 2147              		.thumb_func
 2149              	_Z18computeFourthOrderfP15fourthOrderData:
 2150              	.LFB146:
 2151              		.file 9 "../Libraries/AQ_Math/FourtOrderFilter.h"
   1:../Libraries/AQ_Math/FourtOrderFilter.h **** /*
   2:../Libraries/AQ_Math/FourtOrderFilter.h ****   AeroQuad v3.0.1 - February 2012
   3:../Libraries/AQ_Math/FourtOrderFilter.h ****   www.AeroQuad.com
   4:../Libraries/AQ_Math/FourtOrderFilter.h ****   Copyright (c) 2012 Ted Carancho.  All rights reserved.
   5:../Libraries/AQ_Math/FourtOrderFilter.h ****   An Open Source Arduino based multicopter.
   6:../Libraries/AQ_Math/FourtOrderFilter.h ****  
   7:../Libraries/AQ_Math/FourtOrderFilter.h ****   This program is free software: you can redistribute it and/or modify 
   8:../Libraries/AQ_Math/FourtOrderFilter.h ****   it under the terms of the GNU General Public License as published by 
   9:../Libraries/AQ_Math/FourtOrderFilter.h ****   the Free Software Foundation, either version 3 of the License, or 
  10:../Libraries/AQ_Math/FourtOrderFilter.h ****   (at your option) any later version. 
  11:../Libraries/AQ_Math/FourtOrderFilter.h **** 
  12:../Libraries/AQ_Math/FourtOrderFilter.h ****   This program is distributed in the hope that it will be useful, 
  13:../Libraries/AQ_Math/FourtOrderFilter.h ****   but WITHOUT ANY WARRANTY; without even the implied warranty of 
  14:../Libraries/AQ_Math/FourtOrderFilter.h ****   MERCHANTABILITY or FITNESS FOR A PARTICULAR PURPOSE. See the 
  15:../Libraries/AQ_Math/FourtOrderFilter.h ****   GNU General Public License for more details. 
  16:../Libraries/AQ_Math/FourtOrderFilter.h **** 
  17:../Libraries/AQ_Math/FourtOrderFilter.h ****   You should have received a copy of the GNU General Public License 
  18:../Libraries/AQ_Math/FourtOrderFilter.h ****   along with this program. If not, see <http://www.gnu.org/licenses/>. 
  19:../Libraries/AQ_Math/FourtOrderFilter.h **** */
  20:../Libraries/AQ_Math/FourtOrderFilter.h **** 
  21:../Libraries/AQ_Math/FourtOrderFilter.h **** #ifndef _AQ_FOURTH_ORDER_FILTER_H_
  22:../Libraries/AQ_Math/FourtOrderFilter.h **** #define _AQ_FOURTH_ORDER_FILTER_H_
  23:../Libraries/AQ_Math/FourtOrderFilter.h **** 
  24:../Libraries/AQ_Math/FourtOrderFilter.h **** ////////////////////////////////////////////////////////////////////////////////
  25:../Libraries/AQ_Math/FourtOrderFilter.h **** //
  26:../Libraries/AQ_Math/FourtOrderFilter.h **** //
  27:../Libraries/AQ_Math/FourtOrderFilter.h **** ////////////////////////////////////////////////////////////////////////////////
  28:../Libraries/AQ_Math/FourtOrderFilter.h **** 
  29:../Libraries/AQ_Math/FourtOrderFilter.h **** #include <GlobalDefined.h>
  30:../Libraries/AQ_Math/FourtOrderFilter.h **** 
  31:../Libraries/AQ_Math/FourtOrderFilter.h **** 
  32:../Libraries/AQ_Math/FourtOrderFilter.h **** struct fourthOrderData
  33:../Libraries/AQ_Math/FourtOrderFilter.h **** {
  34:../Libraries/AQ_Math/FourtOrderFilter.h ****   float  inputTm1,  inputTm2,  inputTm3,  inputTm4;
  35:../Libraries/AQ_Math/FourtOrderFilter.h ****   float outputTm1, outputTm2, outputTm3, outputTm4;
  36:../Libraries/AQ_Math/FourtOrderFilter.h **** } fourthOrder[4];
  37:../Libraries/AQ_Math/FourtOrderFilter.h **** 
  38:../Libraries/AQ_Math/FourtOrderFilter.h **** float computeFourthOrder(float currentInput, struct fourthOrderData *filterParameters)
  39:../Libraries/AQ_Math/FourtOrderFilter.h **** {
 2152              		.loc 9 39 0
 2153              		.cfi_startproc
 2154              		@ args = 0, pretend = 0, frame = 0
 2155              		@ frame_needed = 0, uses_anonymous_args = 0
 2156              		@ link register save eliminated.
 2157              	.LVL120:
 2158              	.LBB48:
  40:../Libraries/AQ_Math/FourtOrderFilter.h ****   // cheby2(4,60,12.5/50)
  41:../Libraries/AQ_Math/FourtOrderFilter.h ****   #define _b0  0.001893594048567
  42:../Libraries/AQ_Math/FourtOrderFilter.h ****   #define _b1 -0.002220262954039
  43:../Libraries/AQ_Math/FourtOrderFilter.h ****   #define _b2  0.003389066536478
  44:../Libraries/AQ_Math/FourtOrderFilter.h ****   #define _b3 -0.002220262954039
  45:../Libraries/AQ_Math/FourtOrderFilter.h ****   #define _b4  0.001893594048567
  46:../Libraries/AQ_Math/FourtOrderFilter.h ****   
  47:../Libraries/AQ_Math/FourtOrderFilter.h ****   #define _a1 -3.362256889209355
  48:../Libraries/AQ_Math/FourtOrderFilter.h ****   #define _a2  4.282608240117919
  49:../Libraries/AQ_Math/FourtOrderFilter.h ****   #define _a3 -2.444765517272841
  50:../Libraries/AQ_Math/FourtOrderFilter.h ****   #define _a4  0.527149895089809
  51:../Libraries/AQ_Math/FourtOrderFilter.h ****   
  52:../Libraries/AQ_Math/FourtOrderFilter.h ****   float output;
  53:../Libraries/AQ_Math/FourtOrderFilter.h ****   
  54:../Libraries/AQ_Math/FourtOrderFilter.h ****   output = _b0 * currentInput                + 
  55:../Libraries/AQ_Math/FourtOrderFilter.h ****            _b1 * filterParameters->inputTm1  + 
  56:../Libraries/AQ_Math/FourtOrderFilter.h ****            _b2 * filterParameters->inputTm2  +
  57:../Libraries/AQ_Math/FourtOrderFilter.h ****            _b3 * filterParameters->inputTm3  +
  58:../Libraries/AQ_Math/FourtOrderFilter.h ****            _b4 * filterParameters->inputTm4  -
  59:../Libraries/AQ_Math/FourtOrderFilter.h ****            _a1 * filterParameters->outputTm1 -
  60:../Libraries/AQ_Math/FourtOrderFilter.h ****            _a2 * filterParameters->outputTm2 -
  61:../Libraries/AQ_Math/FourtOrderFilter.h ****            _a3 * filterParameters->outputTm3 -
  62:../Libraries/AQ_Math/FourtOrderFilter.h ****            _a4 * filterParameters->outputTm4;
 2159              		.loc 9 62 0
 2160 0000 91ED005A 		flds	s10, [r1, #0]
 2161 0004 9FED203A 		flds	s6, .L196
 2162              	.LBE48:
  39:../Libraries/AQ_Math/FourtOrderFilter.h **** {
 2163              		.loc 9 39 0
 2164 0008 05EE900A 		fmsr	s11, r0
 2165              	.LBB49:
 2166              		.loc 9 62 0
 2167 000c 9FED1F2A 		flds	s4, .L196+4
 2168 0010 65EE037A 		fmuls	s15, s10, s6
 2169 0014 45EE827A 		fmacs	s15, s11, s4
 2170 0018 D1ED014A 		flds	s9, [r1, #4]
 2171 001c DFED1C2A 		flds	s5, .L196+8
 2172 0020 44EEA27A 		fmacs	s15, s9, s5
 2173 0024 91ED024A 		flds	s8, [r1, #8]
 2174 0028 44EE037A 		fmacs	s15, s8, s6
 2175 002c D1ED031A 		flds	s3, [r1, #12]
 2176 0030 41EE827A 		fmacs	s15, s3, s4
 2177 0034 91ED047A 		flds	s14, [r1, #16]
 2178 0038 9FED161A 		flds	s2, .L196+12
 2179 003c 47EE017A 		fmacs	s15, s14, s2
 2180 0040 D1ED056A 		flds	s13, [r1, #20]
 2181 0044 DFED140A 		flds	s1, .L196+16
 2182 0048 46EEE07A 		fnmacs	s15, s13, s1
 2183 004c 91ED066A 		flds	s12, [r1, #24]
 2184 0050 9FED120A 		flds	s0, .L196+20
 2185 0054 46EE007A 		fmacs	s15, s12, s0
 2186 0058 91ED073A 		flds	s6, [r1, #28]
 2187 005c DFED103A 		flds	s7, .L196+24
 2188 0060 43EE637A 		fnmacs	s15, s6, s7
 2189              	.LVL121:
  63:../Libraries/AQ_Math/FourtOrderFilter.h **** 
  64:../Libraries/AQ_Math/FourtOrderFilter.h ****   filterParameters->inputTm4 = filterParameters->inputTm3;
  65:../Libraries/AQ_Math/FourtOrderFilter.h ****   filterParameters->inputTm3 = filterParameters->inputTm2;
  66:../Libraries/AQ_Math/FourtOrderFilter.h ****   filterParameters->inputTm2 = filterParameters->inputTm1;
  67:../Libraries/AQ_Math/FourtOrderFilter.h ****   filterParameters->inputTm1 = currentInput;
 2190              		.loc 9 67 0
 2191 0064 0860     		str	r0, [r1, #0]	@ float
  64:../Libraries/AQ_Math/FourtOrderFilter.h ****   filterParameters->inputTm4 = filterParameters->inputTm3;
 2192              		.loc 9 64 0
 2193 0066 81ED034A 		fsts	s8, [r1, #12]
  65:../Libraries/AQ_Math/FourtOrderFilter.h ****   filterParameters->inputTm3 = filterParameters->inputTm2;
 2194              		.loc 9 65 0
 2195 006a C1ED024A 		fsts	s9, [r1, #8]
  66:../Libraries/AQ_Math/FourtOrderFilter.h ****   filterParameters->inputTm2 = filterParameters->inputTm1;
 2196              		.loc 9 66 0
 2197 006e 81ED015A 		fsts	s10, [r1, #4]
  68:../Libraries/AQ_Math/FourtOrderFilter.h ****   
  69:../Libraries/AQ_Math/FourtOrderFilter.h ****   filterParameters->outputTm4 = filterParameters->outputTm3;
 2198              		.loc 9 69 0
 2199 0072 81ED076A 		fsts	s12, [r1, #28]
  70:../Libraries/AQ_Math/FourtOrderFilter.h ****   filterParameters->outputTm3 = filterParameters->outputTm2;
 2200              		.loc 9 70 0
 2201 0076 C1ED066A 		fsts	s13, [r1, #24]
  71:../Libraries/AQ_Math/FourtOrderFilter.h ****   filterParameters->outputTm2 = filterParameters->outputTm1;
 2202              		.loc 9 71 0
 2203 007a 81ED057A 		fsts	s14, [r1, #20]
  72:../Libraries/AQ_Math/FourtOrderFilter.h ****   filterParameters->outputTm1 = output;
 2204              		.loc 9 72 0
 2205 007e C1ED047A 		fsts	s15, [r1, #16]
 2206              	.LBE49:
  73:../Libraries/AQ_Math/FourtOrderFilter.h ****     
  74:../Libraries/AQ_Math/FourtOrderFilter.h ****   return output;
  75:../Libraries/AQ_Math/FourtOrderFilter.h **** }
 2207              		.loc 9 75 0
 2208 0082 17EE900A 		fmrs	r0, s15
 2209              	.LVL122:
 2210 0086 7047     		bx	lr
 2211              	.L197:
 2212              		.align	2
 2213              	.L196:
 2214 0088 D58111BB 		.word	-1156480555
 2215 008c 7932F83A 		.word	989344377
 2216 0090 1A1B5E3B 		.word	996023066
 2217 0094 382F5740 		.word	1079455544
 2218 0098 200B8940 		.word	1082723104
 2219 009c 0A771C40 		.word	1075607306
 2220 00a0 4CF3063F 		.word	1057420108
 2221              		.cfi_endproc
 2222              	.LFE146:
 2224              		.section	.text._Z16setupFourthOrderv,"ax",%progbits
 2225              		.align	1
 2226              		.global	_Z16setupFourthOrderv
 2227              		.thumb
 2228              		.thumb_func
 2230              	_Z16setupFourthOrderv:
 2231              	.LFB147:
  76:../Libraries/AQ_Math/FourtOrderFilter.h **** 
  77:../Libraries/AQ_Math/FourtOrderFilter.h **** void setupFourthOrder(void)
  78:../Libraries/AQ_Math/FourtOrderFilter.h **** {
 2232              		.loc 9 78 0
 2233              		.cfi_startproc
 2234              		@ args = 0, pretend = 0, frame = 0
 2235              		@ frame_needed = 0, uses_anonymous_args = 0
 2236              		@ link register save eliminated.
  79:../Libraries/AQ_Math/FourtOrderFilter.h ****   fourthOrder[XAXIS].inputTm1 = 0.0;
 2237              		.loc 9 79 0
 2238 0000 0D4B     		ldr	r3, .L199
  80:../Libraries/AQ_Math/FourtOrderFilter.h ****   fourthOrder[XAXIS].inputTm2 = 0.0;
  81:../Libraries/AQ_Math/FourtOrderFilter.h ****   fourthOrder[XAXIS].inputTm3 = 0.0;
  82:../Libraries/AQ_Math/FourtOrderFilter.h ****   fourthOrder[XAXIS].inputTm4 = 0.0;
  83:../Libraries/AQ_Math/FourtOrderFilter.h ****   
  84:../Libraries/AQ_Math/FourtOrderFilter.h ****   fourthOrder[XAXIS].outputTm1 = 0.0;
  85:../Libraries/AQ_Math/FourtOrderFilter.h ****   fourthOrder[XAXIS].outputTm2 = 0.0;
  86:../Libraries/AQ_Math/FourtOrderFilter.h ****   fourthOrder[XAXIS].outputTm3 = 0.0;
  87:../Libraries/AQ_Math/FourtOrderFilter.h ****   fourthOrder[XAXIS].outputTm4 = 0.0;
  88:../Libraries/AQ_Math/FourtOrderFilter.h ****   
  89:../Libraries/AQ_Math/FourtOrderFilter.h ****   //////////
  90:../Libraries/AQ_Math/FourtOrderFilter.h ****   fourthOrder[YAXIS].inputTm1 = 0.0;
  91:../Libraries/AQ_Math/FourtOrderFilter.h ****   fourthOrder[YAXIS].inputTm2 = 0.0;
  92:../Libraries/AQ_Math/FourtOrderFilter.h ****   fourthOrder[YAXIS].inputTm3 = 0.0;
  93:../Libraries/AQ_Math/FourtOrderFilter.h ****   fourthOrder[YAXIS].inputTm4 = 0.0;
  94:../Libraries/AQ_Math/FourtOrderFilter.h ****   
  95:../Libraries/AQ_Math/FourtOrderFilter.h ****   fourthOrder[YAXIS].outputTm1 = 0.0;
  96:../Libraries/AQ_Math/FourtOrderFilter.h ****   fourthOrder[YAXIS].outputTm2 = 0.0;
  97:../Libraries/AQ_Math/FourtOrderFilter.h ****   fourthOrder[YAXIS].outputTm3 = 0.0;
  98:../Libraries/AQ_Math/FourtOrderFilter.h ****   fourthOrder[YAXIS].outputTm4 = 0.0;
  99:../Libraries/AQ_Math/FourtOrderFilter.h ****   
 100:../Libraries/AQ_Math/FourtOrderFilter.h ****   //////////
 101:../Libraries/AQ_Math/FourtOrderFilter.h ****   fourthOrder[ZAXIS].inputTm1 = -9.8065;
 2239              		.loc 9 101 0
 2240 0002 0E4A     		ldr	r2, .L199+4
  79:../Libraries/AQ_Math/FourtOrderFilter.h ****   fourthOrder[XAXIS].inputTm1 = 0.0;
 2241              		.loc 9 79 0
 2242 0004 0020     		movs	r0, #0
 2243 0006 1860     		str	r0, [r3, #0]	@ float
  80:../Libraries/AQ_Math/FourtOrderFilter.h ****   fourthOrder[XAXIS].inputTm2 = 0.0;
 2244              		.loc 9 80 0
 2245 0008 5860     		str	r0, [r3, #4]	@ float
  81:../Libraries/AQ_Math/FourtOrderFilter.h ****   fourthOrder[XAXIS].inputTm3 = 0.0;
 2246              		.loc 9 81 0
 2247 000a 9860     		str	r0, [r3, #8]	@ float
  82:../Libraries/AQ_Math/FourtOrderFilter.h ****   fourthOrder[XAXIS].inputTm4 = 0.0;
 2248              		.loc 9 82 0
 2249 000c D860     		str	r0, [r3, #12]	@ float
  84:../Libraries/AQ_Math/FourtOrderFilter.h ****   fourthOrder[XAXIS].outputTm1 = 0.0;
 2250              		.loc 9 84 0
 2251 000e 1861     		str	r0, [r3, #16]	@ float
  85:../Libraries/AQ_Math/FourtOrderFilter.h ****   fourthOrder[XAXIS].outputTm2 = 0.0;
 2252              		.loc 9 85 0
 2253 0010 5861     		str	r0, [r3, #20]	@ float
  86:../Libraries/AQ_Math/FourtOrderFilter.h ****   fourthOrder[XAXIS].outputTm3 = 0.0;
 2254              		.loc 9 86 0
 2255 0012 9861     		str	r0, [r3, #24]	@ float
  87:../Libraries/AQ_Math/FourtOrderFilter.h ****   fourthOrder[XAXIS].outputTm4 = 0.0;
 2256              		.loc 9 87 0
 2257 0014 D861     		str	r0, [r3, #28]	@ float
  90:../Libraries/AQ_Math/FourtOrderFilter.h ****   fourthOrder[YAXIS].inputTm1 = 0.0;
 2258              		.loc 9 90 0
 2259 0016 1862     		str	r0, [r3, #32]	@ float
  91:../Libraries/AQ_Math/FourtOrderFilter.h ****   fourthOrder[YAXIS].inputTm2 = 0.0;
 2260              		.loc 9 91 0
 2261 0018 5862     		str	r0, [r3, #36]	@ float
  92:../Libraries/AQ_Math/FourtOrderFilter.h ****   fourthOrder[YAXIS].inputTm3 = 0.0;
 2262              		.loc 9 92 0
 2263 001a 9862     		str	r0, [r3, #40]	@ float
  93:../Libraries/AQ_Math/FourtOrderFilter.h ****   fourthOrder[YAXIS].inputTm4 = 0.0;
 2264              		.loc 9 93 0
 2265 001c D862     		str	r0, [r3, #44]	@ float
  95:../Libraries/AQ_Math/FourtOrderFilter.h ****   fourthOrder[YAXIS].outputTm1 = 0.0;
 2266              		.loc 9 95 0
 2267 001e 1863     		str	r0, [r3, #48]	@ float
  96:../Libraries/AQ_Math/FourtOrderFilter.h ****   fourthOrder[YAXIS].outputTm2 = 0.0;
 2268              		.loc 9 96 0
 2269 0020 5863     		str	r0, [r3, #52]	@ float
  97:../Libraries/AQ_Math/FourtOrderFilter.h ****   fourthOrder[YAXIS].outputTm3 = 0.0;
 2270              		.loc 9 97 0
 2271 0022 9863     		str	r0, [r3, #56]	@ float
  98:../Libraries/AQ_Math/FourtOrderFilter.h ****   fourthOrder[YAXIS].outputTm4 = 0.0;
 2272              		.loc 9 98 0
 2273 0024 D863     		str	r0, [r3, #60]	@ float
 2274              		.loc 9 101 0
 2275 0026 1A64     		str	r2, [r3, #64]	@ float
 102:../Libraries/AQ_Math/FourtOrderFilter.h ****   fourthOrder[ZAXIS].inputTm2 = -9.8065;
 2276              		.loc 9 102 0
 2277 0028 5A64     		str	r2, [r3, #68]	@ float
 103:../Libraries/AQ_Math/FourtOrderFilter.h ****   fourthOrder[ZAXIS].inputTm3 = -9.8065;
 2278              		.loc 9 103 0
 2279 002a 9A64     		str	r2, [r3, #72]	@ float
 104:../Libraries/AQ_Math/FourtOrderFilter.h ****   fourthOrder[ZAXIS].inputTm4 = -9.8065;
 2280              		.loc 9 104 0
 2281 002c DA64     		str	r2, [r3, #76]	@ float
 105:../Libraries/AQ_Math/FourtOrderFilter.h ****   
 106:../Libraries/AQ_Math/FourtOrderFilter.h ****   fourthOrder[ZAXIS].outputTm1 = -9.8065;
 2282              		.loc 9 106 0
 2283 002e 1A65     		str	r2, [r3, #80]	@ float
 107:../Libraries/AQ_Math/FourtOrderFilter.h ****   fourthOrder[ZAXIS].outputTm2 = -9.8065;
 2284              		.loc 9 107 0
 2285 0030 5A65     		str	r2, [r3, #84]	@ float
 108:../Libraries/AQ_Math/FourtOrderFilter.h ****   fourthOrder[ZAXIS].outputTm3 = -9.8065;
 2286              		.loc 9 108 0
 2287 0032 9A65     		str	r2, [r3, #88]	@ float
 109:../Libraries/AQ_Math/FourtOrderFilter.h ****   fourthOrder[ZAXIS].outputTm4 = -9.8065;
 2288              		.loc 9 109 0
 2289 0034 DA65     		str	r2, [r3, #92]	@ float
 110:../Libraries/AQ_Math/FourtOrderFilter.h **** }
 2290              		.loc 9 110 0
 2291 0036 7047     		bx	lr
 2292              	.L200:
 2293              		.align	2
 2294              	.L199:
 2295 0038 00000000 		.word	.LANCHOR24
 2296 003c 6DE71CC1 		.word	-1055070355
 2297              		.cfi_endproc
 2298              	.LFE147:
 2300              		.section	.text._ZN14HardwareSPIExt5SetCSEi,"axG",%progbits,_ZN14HardwareSPIExt5SetCSEi,comdat
 2301              		.align	1
 2302              		.weak	_ZN14HardwareSPIExt5SetCSEi
 2303              		.thumb
 2304              		.thumb_func
 2306              	_ZN14HardwareSPIExt5SetCSEi:
 2307              	.LFB151:
 2308              		.file 10 "../Libraries/AQ_SPI/HardwareSPIExt.h"
   1:../Libraries/AQ_SPI/HardwareSPIExt.h **** #ifndef _AEROQUAD_SPI_HARDWARESPIEXT_H_
   2:../Libraries/AQ_SPI/HardwareSPIExt.h **** #define _AEROQUAD_SPI_HARDWARESPIEXT_H_
   3:../Libraries/AQ_SPI/HardwareSPIExt.h **** 
   4:../Libraries/AQ_SPI/HardwareSPIExt.h **** #if defined(AeroQuadSTM32)
   5:../Libraries/AQ_SPI/HardwareSPIExt.h **** 
   6:../Libraries/AQ_SPI/HardwareSPIExt.h **** // helper class to extend the maple HardwareSPI class
   7:../Libraries/AQ_SPI/HardwareSPIExt.h **** // used by the MPU6000 library
   8:../Libraries/AQ_SPI/HardwareSPIExt.h **** 
   9:../Libraries/AQ_SPI/HardwareSPIExt.h **** #include <HardwareSPI.h>
  10:../Libraries/AQ_SPI/HardwareSPIExt.h **** 
  11:../Libraries/AQ_SPI/HardwareSPIExt.h **** #define SPI_READ_FLAG  0x80
  12:../Libraries/AQ_SPI/HardwareSPIExt.h **** #define SPI_MULTI_FLAG 0x40
  13:../Libraries/AQ_SPI/HardwareSPIExt.h **** #define SetPin digitalWrite
  14:../Libraries/AQ_SPI/HardwareSPIExt.h **** 
  15:../Libraries/AQ_SPI/HardwareSPIExt.h **** class HardwareSPIExt : public HardwareSPI {
  16:../Libraries/AQ_SPI/HardwareSPIExt.h **** public:
  17:../Libraries/AQ_SPI/HardwareSPIExt.h **** 	HardwareSPIExt(uint32 spiPortNumber) : HardwareSPI(spiPortNumber) {
  18:../Libraries/AQ_SPI/HardwareSPIExt.h **** 		SetCS(nssPin());
  19:../Libraries/AQ_SPI/HardwareSPIExt.h **** 		fSpiMultiFlag = 0;
  20:../Libraries/AQ_SPI/HardwareSPIExt.h **** 	}
  21:../Libraries/AQ_SPI/HardwareSPIExt.h **** 
  22:../Libraries/AQ_SPI/HardwareSPIExt.h **** 	void SetCS(int aCS)
 2309              		.loc 10 22 0
 2310              		.cfi_startproc
 2311              		@ args = 0, pretend = 0, frame = 0
 2312              		@ frame_needed = 0, uses_anonymous_args = 0
 2313              		@ link register save eliminated.
 2314              	.LVL123:
  23:../Libraries/AQ_SPI/HardwareSPIExt.h **** 	{
  24:../Libraries/AQ_SPI/HardwareSPIExt.h **** 		fCS = aCS;
 2315              		.loc 10 24 0
 2316 0000 4160     		str	r1, [r0, #4]
  25:../Libraries/AQ_SPI/HardwareSPIExt.h **** 	}
 2317              		.loc 10 25 0
 2318 0002 7047     		bx	lr
 2319              		.cfi_endproc
 2320              	.LFE151:
 2322              		.section	.text._ZN14HardwareSPIExtC2Ej,"axG",%progbits,_ZN14HardwareSPIExtC5Ej,comdat
 2323              		.align	1
 2324              		.weak	_ZN14HardwareSPIExtC2Ej
 2325              		.thumb
 2326              		.thumb_func
 2328              	_ZN14HardwareSPIExtC2Ej:
 2329              	.LFB149:
  17:../Libraries/AQ_SPI/HardwareSPIExt.h **** 	HardwareSPIExt(uint32 spiPortNumber) : HardwareSPI(spiPortNumber) {
 2330              		.loc 10 17 0
 2331              		.cfi_startproc
 2332              		@ args = 0, pretend = 0, frame = 0
 2333              		@ frame_needed = 0, uses_anonymous_args = 0
 2334              	.LVL124:
 2335 0000 10B5     		push	{r4, lr}
 2336              	.LCFI13:
 2337              		.cfi_def_cfa_offset 8
 2338              		.cfi_offset 14, -4
 2339              		.cfi_offset 4, -8
  17:../Libraries/AQ_SPI/HardwareSPIExt.h **** 	HardwareSPIExt(uint32 spiPortNumber) : HardwareSPI(spiPortNumber) {
 2340              		.loc 10 17 0
 2341 0002 0446     		mov	r4, r0
 2342              	.LBB50:
 2343 0004 FFF7FEFF 		bl	_ZN11HardwareSPIC2Ej
 2344              	.LVL125:
  18:../Libraries/AQ_SPI/HardwareSPIExt.h **** 		SetCS(nssPin());
 2345              		.loc 10 18 0
 2346 0008 2046     		mov	r0, r4
 2347 000a FFF7FEFF 		bl	_ZN11HardwareSPI6nssPinEv
 2348 000e 0146     		mov	r1, r0
 2349 0010 2046     		mov	r0, r4
 2350 0012 FFF7FEFF 		bl	_ZN14HardwareSPIExt5SetCSEi
  19:../Libraries/AQ_SPI/HardwareSPIExt.h **** 		fSpiMultiFlag = 0;
 2351              		.loc 10 19 0
 2352 0016 0023     		movs	r3, #0
 2353 0018 2372     		strb	r3, [r4, #8]
 2354              	.LBE50:
  20:../Libraries/AQ_SPI/HardwareSPIExt.h **** 	}
 2355              		.loc 10 20 0
 2356 001a 2046     		mov	r0, r4
 2357 001c 10BD     		pop	{r4, pc}
 2358              		.cfi_endproc
 2359              	.LFE149:
 2361              		.section	.text._ZN14HardwareSPIExt5beginE12SPIFrequencyjj,"axG",%progbits,_ZN14HardwareSPIExt5begi
 2362              		.align	1
 2363              		.weak	_ZN14HardwareSPIExt5beginE12SPIFrequencyjj
 2364              		.thumb
 2365              		.thumb_func
 2367              	_ZN14HardwareSPIExt5beginE12SPIFrequencyjj:
 2368              	.LFB153:
  26:../Libraries/AQ_SPI/HardwareSPIExt.h **** 
  27:../Libraries/AQ_SPI/HardwareSPIExt.h **** 	void SetMultiFlag() {
  28:../Libraries/AQ_SPI/HardwareSPIExt.h **** 		fSpiMultiFlag = SPI_MULTI_FLAG;
  29:../Libraries/AQ_SPI/HardwareSPIExt.h **** 	}
  30:../Libraries/AQ_SPI/HardwareSPIExt.h **** 
  31:../Libraries/AQ_SPI/HardwareSPIExt.h **** 	void begin(SPIFrequency frequency, uint32 bitOrder, uint32 mode)
 2369              		.loc 10 31 0
 2370              		.cfi_startproc
 2371              		@ args = 0, pretend = 0, frame = 0
 2372              		@ frame_needed = 0, uses_anonymous_args = 0
 2373              	.LVL126:
 2374 0000 2DE9F041 		push	{r4, r5, r6, r7, r8, lr}
 2375              	.LCFI14:
 2376              		.cfi_def_cfa_offset 24
 2377              		.cfi_offset 14, -4
 2378              		.cfi_offset 8, -8
 2379              		.cfi_offset 7, -12
 2380              		.cfi_offset 6, -16
 2381              		.cfi_offset 5, -20
 2382              		.cfi_offset 4, -24
 2383              		.loc 10 31 0
 2384 0004 0446     		mov	r4, r0
 2385 0006 0D46     		mov	r5, r1
  32:../Libraries/AQ_SPI/HardwareSPIExt.h **** 	{
  33:../Libraries/AQ_SPI/HardwareSPIExt.h **** 		SetPin(fCS, 1);
 2386              		.loc 10 33 0
 2387 0008 0079     		ldrb	r0, [r0, #4]	@ zero_extendqisi2
 2388              	.LVL127:
 2389 000a 0121     		movs	r1, #1
 2390              	.LVL128:
  31:../Libraries/AQ_SPI/HardwareSPIExt.h **** 	void begin(SPIFrequency frequency, uint32 bitOrder, uint32 mode)
 2391              		.loc 10 31 0
 2392 000c 1746     		mov	r7, r2
 2393 000e 1E46     		mov	r6, r3
 2394              		.loc 10 33 0
 2395 0010 FFF7FEFF 		bl	_Z12digitalWritehh
 2396              	.LVL129:
  34:../Libraries/AQ_SPI/HardwareSPIExt.h **** 		pinMode(fCS, OUTPUT);
 2397              		.loc 10 34 0
 2398 0014 2079     		ldrb	r0, [r4, #4]	@ zero_extendqisi2
 2399 0016 0021     		movs	r1, #0
 2400 0018 FFF7FEFF 		bl	_Z7pinModeh13WiringPinMode
  35:../Libraries/AQ_SPI/HardwareSPIExt.h **** 
  36:../Libraries/AQ_SPI/HardwareSPIExt.h **** 		HardwareSPI::begin(frequency, bitOrder, mode);
 2401              		.loc 10 36 0
 2402 001c 2046     		mov	r0, r4
 2403 001e 2946     		mov	r1, r5
 2404 0020 3A46     		mov	r2, r7
 2405 0022 3346     		mov	r3, r6
  37:../Libraries/AQ_SPI/HardwareSPIExt.h **** 	}
 2406              		.loc 10 37 0
 2407 0024 BDE8F041 		pop	{r4, r5, r6, r7, r8, lr}
  36:../Libraries/AQ_SPI/HardwareSPIExt.h **** 		HardwareSPI::begin(frequency, bitOrder, mode);
 2408              		.loc 10 36 0
 2409 0028 FFF7FEBF 		b	_ZN11HardwareSPI5beginE12SPIFrequencyjj
 2410              		.cfi_endproc
 2411              	.LFE153:
 2413              		.section	.text._ZN14HardwareSPIExt4ReadEiPhi,"axG",%progbits,_ZN14HardwareSPIExt4ReadEiPhi,comdat
 2414              		.align	1
 2415              		.weak	_ZN14HardwareSPIExt4ReadEiPhi
 2416              		.thumb
 2417              		.thumb_func
 2419              	_ZN14HardwareSPIExt4ReadEiPhi:
 2420              	.LFB154:
  38:../Libraries/AQ_SPI/HardwareSPIExt.h **** 
  39:../Libraries/AQ_SPI/HardwareSPIExt.h **** 	void Read(int addr, unsigned char *data, int dataLen)
 2421              		.loc 10 39 0
 2422              		.cfi_startproc
 2423              		@ args = 0, pretend = 0, frame = 0
 2424              		@ frame_needed = 0, uses_anonymous_args = 0
 2425              	.LVL130:
 2426 0000 F8B5     		push	{r3, r4, r5, r6, r7, lr}
 2427              	.LCFI15:
 2428              		.cfi_def_cfa_offset 24
 2429              		.cfi_offset 14, -4
 2430              		.cfi_offset 7, -8
 2431              		.cfi_offset 6, -12
 2432              		.cfi_offset 5, -16
 2433              		.cfi_offset 4, -20
 2434              		.cfi_offset 3, -24
 2435              		.loc 10 39 0
 2436 0002 0446     		mov	r4, r0
 2437 0004 0D46     		mov	r5, r1
  40:../Libraries/AQ_SPI/HardwareSPIExt.h **** 	{
  41:../Libraries/AQ_SPI/HardwareSPIExt.h **** 		SetPin(fCS, 0);
 2438              		.loc 10 41 0
 2439 0006 0079     		ldrb	r0, [r0, #4]	@ zero_extendqisi2
 2440              	.LVL131:
 2441 0008 0021     		movs	r1, #0
 2442              	.LVL132:
  39:../Libraries/AQ_SPI/HardwareSPIExt.h **** 	void Read(int addr, unsigned char *data, int dataLen)
 2443              		.loc 10 39 0
 2444 000a 1F46     		mov	r7, r3
 2445 000c 1646     		mov	r6, r2
 2446              		.loc 10 41 0
 2447 000e FFF7FEFF 		bl	_Z12digitalWritehh
 2448              	.LVL133:
  42:../Libraries/AQ_SPI/HardwareSPIExt.h **** 		transfer(addr | SPI_READ_FLAG | fSpiMultiFlag);
 2449              		.loc 10 42 0
 2450 0012 207A     		ldrb	r0, [r4, #8]	@ zero_extendqisi2
 2451 0014 60F07F03 		orn	r3, r0, #127
 2452 0018 1D43     		orrs	r5, r5, r3
 2453              	.LVL134:
 2454 001a E9B2     		uxtb	r1, r5
 2455 001c 2046     		mov	r0, r4
 2456 001e FFF7FEFF 		bl	_ZN11HardwareSPI8transferEh
 2457 0022 3D46     		mov	r5, r7
  43:../Libraries/AQ_SPI/HardwareSPIExt.h **** 		while(dataLen-- > 0) {
 2458              		.loc 10 43 0
 2459 0024 06E0     		b	.L206
 2460              	.LVL135:
 2461              	.L207:
  44:../Libraries/AQ_SPI/HardwareSPIExt.h **** 			*data++ = transfer(0);
 2462              		.loc 10 44 0
 2463 0026 2046     		mov	r0, r4
 2464 0028 0021     		movs	r1, #0
 2465 002a FFF7FEFF 		bl	_ZN11HardwareSPI8transferEh
 2466 002e 06F8010B 		strb	r0, [r6], #1
 2467              	.LVL136:
 2468 0032 013D     		subs	r5, r5, #1
 2469              	.L206:
  43:../Libraries/AQ_SPI/HardwareSPIExt.h **** 		while(dataLen-- > 0) {
 2470              		.loc 10 43 0 discriminator 1
 2471 0034 002D     		cmp	r5, #0
 2472 0036 F6DC     		bgt	.L207
  45:../Libraries/AQ_SPI/HardwareSPIExt.h **** 		}
  46:../Libraries/AQ_SPI/HardwareSPIExt.h **** 		SetPin(fCS, 1);
 2473              		.loc 10 46 0
 2474 0038 2079     		ldrb	r0, [r4, #4]	@ zero_extendqisi2
 2475 003a 0121     		movs	r1, #1
  47:../Libraries/AQ_SPI/HardwareSPIExt.h **** 	}
 2476              		.loc 10 47 0
 2477 003c BDE8F840 		pop	{r3, r4, r5, r6, r7, lr}
  46:../Libraries/AQ_SPI/HardwareSPIExt.h **** 		SetPin(fCS, 1);
 2478              		.loc 10 46 0
 2479 0040 FFF7FEBF 		b	_Z12digitalWritehh
 2480              		.cfi_endproc
 2481              	.LFE154:
 2483              		.section	.text._ZN14HardwareSPIExt4ReadEi,"axG",%progbits,_ZN14HardwareSPIExt4ReadEi,comdat
 2484              		.align	1
 2485              		.weak	_ZN14HardwareSPIExt4ReadEi
 2486              		.thumb
 2487              		.thumb_func
 2489              	_ZN14HardwareSPIExt4ReadEi:
 2490              	.LFB155:
  48:../Libraries/AQ_SPI/HardwareSPIExt.h **** 
  49:../Libraries/AQ_SPI/HardwareSPIExt.h **** 	unsigned char Read(int addr)
 2491              		.loc 10 49 0
 2492              		.cfi_startproc
 2493              		@ args = 0, pretend = 0, frame = 8
 2494              		@ frame_needed = 0, uses_anonymous_args = 0
 2495              	.LVL137:
 2496 0000 07B5     		push	{r0, r1, r2, lr}
 2497              	.LCFI16:
 2498              		.cfi_def_cfa_offset 16
 2499              		.cfi_offset 14, -4
 2500              		.cfi_offset 2, -8
 2501              		.cfi_offset 1, -12
 2502              		.cfi_offset 0, -16
 2503              	.LBB51:
  50:../Libraries/AQ_SPI/HardwareSPIExt.h **** 	{
  51:../Libraries/AQ_SPI/HardwareSPIExt.h **** 		unsigned char data;
  52:../Libraries/AQ_SPI/HardwareSPIExt.h **** 		Read(addr, &data, 1);
 2504              		.loc 10 52 0
 2505 0002 0123     		movs	r3, #1
 2506 0004 0DF10702 		add	r2, sp, #7
 2507 0008 FFF7FEFF 		bl	_ZN14HardwareSPIExt4ReadEiPhi
 2508              	.LVL138:
 2509              	.LBE51:
  53:../Libraries/AQ_SPI/HardwareSPIExt.h **** 
  54:../Libraries/AQ_SPI/HardwareSPIExt.h **** 		return data;
  55:../Libraries/AQ_SPI/HardwareSPIExt.h **** 	}
 2510              		.loc 10 55 0
 2511 000c 9DF80700 		ldrb	r0, [sp, #7]	@ zero_extendqisi2
 2512 0010 0EBD     		pop	{r1, r2, r3, pc}
 2513              		.cfi_endproc
 2514              	.LFE155:
 2516              		.section	.text._ZN14HardwareSPIExt5WriteEiPhi,"axG",%progbits,_ZN14HardwareSPIExt5WriteEiPhi,comda
 2517              		.align	1
 2518              		.weak	_ZN14HardwareSPIExt5WriteEiPhi
 2519              		.thumb
 2520              		.thumb_func
 2522              	_ZN14HardwareSPIExt5WriteEiPhi:
 2523              	.LFB156:
  56:../Libraries/AQ_SPI/HardwareSPIExt.h **** 
  57:../Libraries/AQ_SPI/HardwareSPIExt.h **** 	void Write(int addr, unsigned char *data, int dataLen)
 2524              		.loc 10 57 0
 2525              		.cfi_startproc
 2526              		@ args = 0, pretend = 0, frame = 0
 2527              		@ frame_needed = 0, uses_anonymous_args = 0
 2528              	.LVL139:
 2529 0000 F8B5     		push	{r3, r4, r5, r6, r7, lr}
 2530              	.LCFI17:
 2531              		.cfi_def_cfa_offset 24
 2532              		.cfi_offset 14, -4
 2533              		.cfi_offset 7, -8
 2534              		.cfi_offset 6, -12
 2535              		.cfi_offset 5, -16
 2536              		.cfi_offset 4, -20
 2537              		.cfi_offset 3, -24
 2538              		.loc 10 57 0
 2539 0002 0446     		mov	r4, r0
 2540 0004 0D46     		mov	r5, r1
  58:../Libraries/AQ_SPI/HardwareSPIExt.h **** 	{
  59:../Libraries/AQ_SPI/HardwareSPIExt.h **** 		SetPin(fCS, 0);
 2541              		.loc 10 59 0
 2542 0006 0079     		ldrb	r0, [r0, #4]	@ zero_extendqisi2
 2543              	.LVL140:
 2544 0008 0021     		movs	r1, #0
 2545              	.LVL141:
  57:../Libraries/AQ_SPI/HardwareSPIExt.h **** 	void Write(int addr, unsigned char *data, int dataLen)
 2546              		.loc 10 57 0
 2547 000a 1F46     		mov	r7, r3
 2548 000c 1646     		mov	r6, r2
 2549              		.loc 10 59 0
 2550 000e FFF7FEFF 		bl	_Z12digitalWritehh
 2551              	.LVL142:
  60:../Libraries/AQ_SPI/HardwareSPIExt.h **** 		transfer(addr | fSpiMultiFlag);
 2552              		.loc 10 60 0
 2553 0012 237A     		ldrb	r3, [r4, #8]	@ zero_extendqisi2
 2554 0014 1D43     		orrs	r5, r5, r3
 2555              	.LVL143:
 2556 0016 E9B2     		uxtb	r1, r5
 2557 0018 2046     		mov	r0, r4
 2558 001a FFF7FEFF 		bl	_ZN11HardwareSPI8transferEh
 2559 001e 3D46     		mov	r5, r7
